TN:
SF:/home/travis/build/erebos-project/erebos-api/src/file.cpp
FN:119,_ZN6erebos4file4readERKSs
FN:197,_GLOBAL__sub_I__ZN6erebos4file8get_pathESs
FN:197,_Z41__static_initialization_and_destruction_0ii
FNDA:7,_ZN6erebos4file9write_binERKSsPKcmb
FNDA:5,_ZN6erebos4file13get_extensionERKSs
FNDA:5,_Z41__static_initialization_and_destruction_0ii
FNDA:4,_ZN6erebos4file8get_pathESs
FNDA:5,_GLOBAL__sub_I__ZN6erebos4file8get_pathESs
FNDA:1,_ZN6erebos4file10get_existsERKSs
FNDA:4,_ZN6erebos4file8read_binERKSsPm
FNDA:1,_ZN6erebos4file5writeERKSsS2_b
FNDA:5,_ZN6erebos4file12get_basenameESs
FNDA:10,_ZN6erebos4file8get_nameESs
FNDA:1,_ZN6erebos4file4readERKSs
FNF:11
FNH:11
DA:10,4
DA:12,8
DA:16,4
DA:17,1
DA:19,27
DA:20,27
DA:21,3
DA:25,24
DA:28,6
DA:34,5
DA:39,5
DA:40,1
DA:42,45
DA:43,45
DA:49,4
DA:50,4
DA:52,0
DA:56,10
DA:59,20
DA:63,10
DA:64,2
DA:66,88
DA:67,88
DA:73,8
DA:74,4
DA:79,5
DA:81,15
DA:85,5
DA:86,1
DA:88,16
DA:89,20
DA:94,4
DA:95,8
DA:101,1
DA:105,1
DA:112,1
DA:113,1
DA:114,1
DA:119,1
DA:120,1
DA:122,1
DA:123,0
DA:125,2
DA:126,1
DA:128,1
DA:132,4
DA:136,4
DA:142,4
DA:145,3
DA:146,3
DA:147,3
DA:149,3
DA:150,6
DA:152,3
DA:153,2
DA:155,3
DA:161,1
DA:162,1
DA:163,1
DA:164,0
DA:166,1
DA:168,1
DA:172,1
DA:176,7
DA:181,14
DA:187,7
DA:190,7
DA:191,3
DA:193,7
DA:194,7
DA:196,7
DA:197,15
LF:72
LH:69
end_of_record
TN:
SF:/home/travis/build/erebos-project/erebos-api/src/input.cpp
FN:34,_ZL21get_keyboard_evpath_sPc
FN:76,_ZN6erebos5input23getev_physical_keyboardEv
FN:83,_ZN6erebos5input21new_virtual_kb_deviceEPKcRKbRKtS6_S6_S6_
FN:119,_ZN6erebos5input25destroy_virtual_kb_deviceERKi
FN:151,_ZN6erebos5input7get_keyEP8_IO_FILE
FN:180,_ZN6erebos5input8fake_putERKiRKNS0_3KeyERKNS0_12KeyPressTypeE
FNDA:0,_ZN6erebos5input21new_virtual_kb_deviceEPKcRKbRKtS6_S6_S6_
FNDA:0,_ZN6erebos5input23getev_physical_keyboardEv
FNDA:0,_ZL21get_keyboard_evpath_sPc
FNDA:0,_ZN6erebos5input8fake_putERKiRKNS0_3KeyERKNS0_12KeyPressTypeE
FNDA:0,_ZN6erebos5input7get_keyEP8_IO_FILE
FNDA:0,_ZN6erebos5input25destroy_virtual_kb_deviceERKi
FNF:6
FNH:0
DA:34,0
DA:35,0
DA:36,0
DA:41,0
DA:42,0
DA:43,0
DA:44,0
DA:48,0
DA:52,0
DA:54,0
DA:58,0
DA:61,0
DA:64,0
DA:67,0
DA:70,0
DA:73,0
DA:76,0
DA:78,0
DA:80,0
DA:83,0
DA:87,0
DA:90,0
DA:93,0
DA:94,0
DA:100,0
DA:101,0
DA:102,0
DA:103,0
DA:106,0
DA:110,0
DA:113,0
DA:114,0
DA:116,0
DA:119,0
DA:120,0
DA:123,0
DA:151,0
DA:155,0
DA:157,0
DA:158,0
DA:180,0
DA:184,0
DA:185,0
DA:186,0
DA:187,0
DA:189,0
DA:192,0
DA:193,0
DA:194,0
DA:196,0
LF:50
LH:0
end_of_record
TN:
SF:/home/travis/build/erebos-project/erebos-api/src/misc.cpp
FN:7,_ZN6erebos17get_prompt_answerERKSsS1_RKb
FN:24,_GLOBAL__sub_I__ZN6erebos17get_prompt_answerERKSsS1_RKb
FN:24,_Z41__static_initialization_and_destruction_0ii
FNDA:5,_Z41__static_initialization_and_destruction_0ii
FNDA:0,_ZN6erebos17get_prompt_answerERKSsS1_RKb
FNDA:5,_GLOBAL__sub_I__ZN6erebos17get_prompt_answerERKSsS1_RKb
FNF:3
FNH:2
DA:7,0
DA:10,0
DA:12,0
DA:14,0
DA:16,0
DA:19,0
DA:20,0
DA:21,0
DA:24,15
LF:9
LH:1
end_of_record
TN:
SF:/home/travis/build/erebos-project/erebos-api/src/misc.h
FN:181,_ZN6erebos7printlnISsIEEEvRKT_DpRKT0_
FN:201,_ZN6erebos5printISsIA7_cEEEvRKT_DpRKT0_
FNDA:0,_ZN6erebos7printlnISsIEEEvRKT_DpRKT0_
FNDA:0,_ZN6erebos5printISsIA7_cEEEvRKT_DpRKT0_
FNF:2
FNH:0
DA:181,0
DA:184,0
DA:201,0
DA:202,0
DA:204,0
LF:5
LH:0
end_of_record
TN:
SF:/home/travis/build/erebos-project/erebos-api/src/native.cpp
FN:67,_ZN6erebos4proc7get_pidEv
FN:148,_ZN6erebos4proc4killERKi
FN:157,_ZN6erebos4proc8mem_readERKiRKmPcS4_
FN:194,_ZN6erebos4proc9mem_writeERKiRKmPcS4_
FN:236,_ZN6erebos4proc8mem_lockEPvRKm
FN:246,_ZN6erebos4proc10mem_unlockEPvRKm
FN:256,_ZN6erebos13is_privilegedEv
FN:297,_ZN6erebos17get_random_secureEv
FN:496,_Z15remove_callbackPKcPK4statiP3FTW
FN:583,_ZN6erebos7get_cwdEv
FN:645,_ZN6erebos17string_from_errnoERKi
FNDA:0,_ZN6erebos4file8get_sizeERKSs
FNDA:0,_ZN6erebos17string_from_errnoERKi
FNDA:0,_ZN6erebos9pipe_openERKSsPi
FNDA:0,_ZN6erebos4proc4killERKi
FNDA:0,_ZN6erebos4file17get_folder_existsERKSs
FNDA:0,_ZN6erebos4proc8mem_readERKiRKmPcS4_
FNDA:0,_ZN6erebos4file17get_dir_file_listERKSsRSt6vectorISsSaISsEE
FNDA:4,_ZN6erebos4file6removeERKSs
FNDA:0,_ZN6erebos4file8readlinkERKSs
FNDA:0,_ZN6erebos4file10remove_dirERKSs
FNDA:0,_ZN6erebos4proc10mem_unlockEPvRKm
FNDA:0,_ZN6erebos7set_cwdESs
FNDA:0,_ZN6erebos4proc7get_pidEv
FNDA:0,_ZN6erebos4proc15get_pid_by_nameERKSsRSt6vectorIiSaIiEE
FNDA:0,_ZN6erebos17get_random_secureEv
FNDA:0,_ZN6erebos7get_cwdEv
FNDA:0,_ZN6erebos4file19get_dir_folder_listERKSsRSt6vectorISsSaISsEE
FNDA:0,_ZN6erebos14_get_exe_path_Ev
FNDA:0,_ZN6erebos9pipe_openERKSsRSsPi
FNDA:0,_ZN6erebos4proc8mem_lockEPvRKm
FNDA:0,_Z15remove_callbackPKcPK4statiP3FTW
FNDA:0,_ZN6erebos4proc9mem_writeERKiRKmPcS4_
FNDA:0,_ZN6erebos13is_privilegedEv
FNF:23
FNH:1
DA:46,0
DA:59,0
DA:60,0
DA:62,0
DA:67,0
DA:73,0
DA:78,0
DA:111,0
DA:115,0
DA:117,0
DA:120,0
DA:121,0
DA:123,0
DA:124,0
DA:129,0
DA:148,0
DA:153,0
DA:157,0
DA:180,0
DA:181,0
DA:183,0
DA:184,0
DA:186,0
DA:187,0
DA:190,0
DA:194,0
DA:220,0
DA:221,0
DA:223,0
DA:224,0
DA:226,0
DA:227,0
DA:230,0
DA:236,0
DA:242,0
DA:246,0
DA:252,0
DA:256,0
DA:292,0
DA:297,0
DA:325,0
DA:328,0
DA:369,0
DA:370,0
DA:374,0
DA:375,0
DA:376,0
DA:378,0
DA:382,0
DA:386,0
DA:427,0
DA:428,0
DA:432,0
DA:433,0
DA:434,0
DA:436,0
DA:439,0
DA:443,0
DA:452,0
DA:457,0
DA:475,0
DA:478,0
DA:483,4
DA:488,4
DA:496,0
DA:498,0
DA:504,0
DA:531,0
DA:538,0
DA:540,0
DA:541,0
DA:544,0
DA:545,0
DA:546,0
DA:547,0
DA:549,0
DA:552,0
DA:556,0
DA:558,0
DA:559,0
DA:562,0
DA:565,0
DA:566,0
DA:568,0
DA:570,0
DA:571,0
DA:573,0
DA:574,0
DA:576,0
DA:579,0
DA:583,0
DA:599,0
DA:600,0
DA:602,0
DA:608,0
DA:616,0
DA:625,0
DA:630,0
DA:631,0
DA:635,0
DA:636,0
DA:638,0
DA:639,0
DA:645,0
DA:648,0
LF:105
LH:2
end_of_record
TN:
SF:/home/travis/build/erebos-project/erebos-api/src/socket.cpp
FN:36,_ZN6erebos6socket10initializeEv
FN:50,_ZN6erebos6socket7destroyEv
FN:61,_ZN6erebos6socket11HTTPRequest3strEv
FN:85,_ZN6erebos6socket9TCPSocketC2Ev
FN:97,_ZN6erebos6socket9TCPSocketD2Ev
FN:113,_ZN6erebos6socket9TCPSocket7connectESsj
FN:162,_ZN6erebos6socket9TCPSocket4readEPPcj
FN:207,_ZN6erebos6socket9TCPSocket5writeESs
FN:228,_ZN6erebos6socket9TCPSocket5writeEPcm
FN:248,_ZN6erebos6socket9TCPSocket5closeEv
FN:265,_Z41__static_initialization_and_destruction_0ii
FN:265,_GLOBAL__sub_I__ZN6erebos6socket11initializedE
FNDA:0,_ZN6erebos6socket10initializeEv
FNDA:5,_GLOBAL__sub_I__ZN6erebos6socket11initializedE
FNDA:0,_ZN6erebos6socket17forge_http_packetENS0_11HTTPRequestE
FNDA:0,_ZN6erebos6socket9TCPSocket5writeESs
FNDA:0,_ZN6erebos6socket9TCPSocket4readEPPcj
FNDA:0,_ZN6erebos6socket9TCPSocket5writeEPcm
FNDA:0,_ZN6erebos6socket9TCPSocketC2Ev
FNDA:0,_ZN6erebos6socket9TCPSocket7connectESsj
FNDA:0,_ZN6erebos6socket9TCPSocket5closeEv
FNDA:0,_ZN6erebos6socket11HTTPRequest3strEv
FNDA:5,_Z41__static_initialization_and_destruction_0ii
FNDA:0,_ZN6erebos6socket7destroyEv
FNDA:0,_ZN6erebos6socket9TCPSocketD2Ev
FNF:13
FNH:2
DA:36,0
DA:47,0
DA:50,0
DA:58,0
DA:61,0
DA:62,0
DA:66,0
DA:68,0
DA:69,0
DA:70,0
DA:71,0
DA:72,0
DA:73,0
DA:74,0
DA:75,0
DA:76,0
DA:77,0
DA:78,0
DA:79,0
DA:81,0
DA:85,0
DA:87,0
DA:89,0
DA:92,0
DA:93,0
DA:94,0
DA:97,0
DA:110,0
DA:113,0
DA:115,0
DA:156,0
DA:162,0
DA:164,0
DA:203,0
DA:207,0
DA:209,0
DA:224,0
DA:228,0
DA:230,0
DA:245,0
DA:248,0
DA:250,0
DA:264,0
DA:265,15
LF:44
LH:1
end_of_record
TN:
SF:/home/travis/build/erebos-project/erebos-api/src/socket.h
FNDA:0,_ZN6erebos6socket11HTTPRequestD2Ev
FNDA:0,_ZN6erebos6socket11HTTPRequestC2ERKS1_
FNF:2
FNH:0
DA:13,0
LF:1
LH:0
end_of_record
TN:
SF:/home/travis/build/erebos-project/erebos-api/src/stringutils.h
FN:53,_ZN6erebos7strutil10is_literalERKc
FN:62,_ZN6erebos7strutil10is_numeralERKc
FN:71,_ZN6erebos7strutil9is_quotesERKc
FN:213,_ZN6erebos7strutil8index_ofEPKcRS1_
FN:229,_ZN6erebos7strutil8index_ofEPKcRS1_RKx
FNDA:1,_ZN6erebos7strutil5chompERSs
FNDA:18,_ZN6erebos7strutil7replaceERSsRKcS3_RKm
FNDA:9,_ZN6erebos7strutil7replaceERSsRKSsS3_RKm
FNDA:3,_ZN6erebos7strutil3mulERKSsRKm
FNDA:3,_ZN6erebos7strutil9is_quotesERKc
FNDA:3,_ZN6erebos7strutil10is_numeralERKc
FNDA:1,_ZN6erebos7strutil6base646encodeERKSsPKc
FNDA:3,_ZN6erebos7strutil10is_literalERKc
FNDA:2,_ZN6erebos7strutil10is_numeralERKSs
FNDA:2,_ZN6erebos7strutil5splitERKSsRKcRSt6vectorISsSaISsEE
FNDA:2,_ZN6erebos7strutil10is_literalERKSs
FNDA:3,_ZN6erebos7strutil8index_ofEPKcRS1_RKx
FNDA:1,_ZN6erebos7strutil6base646decodeERKSsPKc
FNDA:1,_ZN6erebos7strutil12parse_quotesERKSs
FNDA:18,_ZN6erebos7strutil3cutERKSsRKmm
FNDA:15,_ZN6erebos7strutil8index_ofEPKcRS1_
FNDA:15,_ZN6erebos7strutil13to_unix_slashERKSs
FNF:17
FNH:17
DA:36,1
DA:38,1
DA:40,1
DA:41,1
DA:42,1
DA:53,3
DA:54,14
DA:62,3
DA:63,15
DA:71,3
DA:72,3
DA:80,2
DA:82,24
DA:83,11
DA:95,2
DA:97,26
DA:98,12
DA:112,18
DA:115,18
DA:116,1
DA:118,18
DA:120,98
DA:121,80
DA:123,18
DA:133,9
DA:146,45
DA:148,11
DA:150,11
DA:153,9
DA:162,18
DA:166,376
DA:167,172
DA:168,8
DA:169,8
DA:172,172
DA:175,18
DA:183,3
DA:186,6
DA:189,3
DA:198,2
DA:200,2
DA:203,12
DA:204,6
DA:205,2
DA:213,15
DA:215,453
DA:216,452
DA:229,3
DA:230,11
DA:231,10
DA:242,15
DA:243,15
DA:244,15
DA:245,15
DA:253,1
DA:255,1
DA:256,0
DA:259,1
DA:260,0
DA:265,8
DA:267,8
DA:286,1
DA:289,1
DA:294,5
DA:296,3
DA:297,6
DA:298,6
DA:300,3
DA:301,3
DA:302,3
DA:303,3
DA:305,3
DA:306,3
DA:307,3
DA:308,3
DA:310,3
DA:314,1
DA:316,0
DA:321,2
DA:322,2
DA:325,1
DA:334,1
DA:341,1
DA:346,5
DA:348,3
DA:349,6
DA:350,6
DA:351,6
DA:354,3
DA:355,3
DA:357,3
DA:361,3
DA:362,3
DA:365,3
DA:366,3
DA:368,3
DA:371,1
LF:97
LH:94
end_of_record
TN:
SF:/home/travis/build/erebos-project/erebos-api/src/time_utils.cpp
FN:7,_ZN6erebos5etimeC2EP2tm
FN:9,_ZN6erebos13get_localtimeEv
FN:53,_GLOBAL__sub_I__ZN6erebos5etimeC2EP2tm
FN:53,_Z41__static_initialization_and_destruction_0ii
FNDA:1,_ZN6erebos5etimeC2EP2tm
FNDA:1,_ZNK6erebos5etime9to_stringESs
FNDA:1,_ZN6erebos13get_localtimeEv
FNDA:5,_GLOBAL__sub_I__ZN6erebos5etimeC2EP2tm
FNDA:5,_Z41__static_initialization_and_destruction_0ii
FNF:5
FNH:5
DA:7,1
DA:9,2
DA:11,1
DA:12,2
DA:13,2
DA:14,2
DA:15,2
DA:16,2
DA:17,2
DA:19,1
DA:21,1
DA:22,4
DA:23,4
DA:24,4
DA:25,4
DA:26,4
DA:27,4
DA:29,1
DA:32,1
DA:34,1
DA:42,1
DA:43,1
DA:53,15
LF:23
LH:23
end_of_record
TN:
SF:/home/travis/build/erebos-project/erebos-api/src/time_utils.h
FNF:0
FNH:0
DA:30,1
LF:1
LH:1
end_of_record
