TN:
SF:/home/ssynx/Devel/erebos-api/src/stringutils.h
FN:52,_ZN6erebos7strutil10is_literalERKc
FN:61,_ZN6erebos7strutil10is_numeralERKc
FN:70,_ZN6erebos7strutil9is_quotesERKc
FN:203,_ZN6erebos7strutil8index_ofEPKcRS1_
FN:218,_ZN6erebos7strutil8index_ofEPKcRS1_RKx
FNDA:1,_ZN6erebos7strutil5chompERNSt7__cxx1112basic_stringIcSt11char_traitsIcESaIcEEE
FNDA:3,_ZN6erebos7strutil10is_literalERKc
FNDA:3,_ZN6erebos7strutil10is_numeralERKc
FNDA:3,_ZN6erebos7strutil9is_quotesERKc
FNDA:2,_ZN6erebos7strutil10is_literalERKNSt7__cxx1112basic_stringIcSt11char_traitsIcESaIcEEE
FNDA:2,_ZN6erebos7strutil10is_numeralERKNSt7__cxx1112basic_stringIcSt11char_traitsIcESaIcEEE
FNDA:2,_ZN6erebos7strutil7replaceERNSt7__cxx1112basic_stringIcSt11char_traitsIcESaIcEEERKS6_S9_RKm
FNDA:2,_ZN6erebos7strutil5splitERKNSt7__cxx1112basic_stringIcSt11char_traitsIcESaIcEEERKcRSt6vectorIS6_SaIS6_EE
FNDA:3,_ZN6erebos7strutil8index_ofEPKcRS1_
FNDA:3,_ZN6erebos7strutil8index_ofEPKcRS1_RKx
FNDA:1,_ZN6erebos7strutil16stderr_to_stdoutERKNSt7__cxx1112basic_stringIcSt11char_traitsIcESaIcEEE
FNF:11
FNH:11
DA:36,1
DA:37,1
DA:39,1
DA:40,1
DA:41,1
DA:52,3
DA:53,14
DA:61,3
DA:62,15
DA:70,3
DA:71,3
DA:79,2
DA:80,22
DA:81,11
DA:92,2
DA:93,24
DA:94,12
DA:127,2
DA:139,6
DA:141,3
DA:143,3
DA:146,2
DA:188,2
DA:190,4
DA:193,12
DA:194,4
DA:195,2
DA:203,3
DA:204,19
DA:205,10
DA:218,3
DA:219,19
DA:220,10
DA:327,1
DA:328,2
LF:35
LH:35
end_of_record
SF:/home/ssynx/Devel/erebos-api/test/test-strutils.cpp
FN:167,_GLOBAL__sub_I_main
FNDA:1,main
FNDA:1,_GLOBAL__sub_I_main
FNF:2
FNH:2
DA:4,1
DA:6,1
DA:9,2
DA:11,1
DA:12,1
DA:13,1
DA:15,1
DA:18,2
DA:20,1
DA:21,1
DA:23,1
DA:24,1
DA:26,1
DA:27,1
DA:29,1
DA:32,2
DA:34,1
DA:35,1
DA:37,1
DA:38,1
DA:40,1
DA:41,1
DA:43,1
DA:46,2
DA:48,1
DA:49,1
DA:51,1
DA:52,1
DA:54,1
DA:55,1
DA:57,1
DA:60,2
DA:62,2
DA:63,1
DA:65,2
DA:66,1
DA:68,1
DA:71,2
DA:73,2
DA:74,1
DA:76,2
DA:77,1
DA:79,1
DA:82,2
DA:84,3
DA:85,1
DA:87,1
DA:91,2
DA:93,1
DA:94,2
DA:96,1
DA:97,1
DA:98,1
DA:100,2
DA:102,1
DA:103,1
DA:104,1
DA:106,1
DA:109,2
DA:113,1
DA:115,1
DA:116,1
DA:118,1
DA:119,1
DA:121,1
DA:122,1
DA:124,1
DA:127,2
DA:131,1
DA:133,1
DA:134,1
DA:136,1
DA:137,1
DA:139,1
DA:140,1
DA:142,1
DA:145,2
DA:148,1
DA:149,3
DA:150,1
DA:153,3
DA:154,1
DA:156,1
DA:166,1
DA:167,2
LF:85
LH:85
end_of_record
SF:/usr/lib/gcc/x86_64-pc-linux-gnu/5.4.0/include/g++-v5/bits/basic_string.h
FN:109,_ZNSt7__cxx1112basic_stringIcSt11char_traitsIcESaIcEEC2EPKcRKS3_.isra.36
FNDA:13,_ZNSt7__cxx1112basic_stringIcSt11char_traitsIcESaIcEEC2EPKcRKS3_.isra.36
FNF:1
FNH:1
DA:106,27
DA:109,25
DA:127,8
DA:131,34
DA:141,21
DA:151,16
DA:159,1
DA:165,17
DA:179,27
DA:195,15
DA:296,17
DA:400,2
DA:454,13
DA:456,39
DA:479,7
DA:487,0
DA:543,27
DA:559,1
DA:589,1
DA:834,23
DA:892,1
DA:893,0
DA:897,1
DA:1532,3
DA:1935,3
DA:4927,5
DA:4939,2
DA:5177,0
LF:28
LH:25
end_of_record
SF:/usr/lib/gcc/x86_64-pc-linux-gnu/5.4.0/include/g++-v5/bits/basic_string.tcc
FNDA:2,_ZNSt7__cxx1112basic_stringIcSt11char_traitsIcESaIcEE12_M_constructIPcEEvT_S7_St20forward_iterator_tag.isra.39
FNDA:15,_ZNSt7__cxx1112basic_stringIcSt11char_traitsIcESaIcEE12_M_constructIPKcEEvT_S8_St20forward_iterator_tag.isra.33
FNF:2
FNH:2
DA:210,17
DA:215,17
DA:216,0
DA:219,17
DA:221,17
DA:223,1
DA:224,1
DA:236,17
DA:237,17
LF:9
LH:8
end_of_record
SF:/usr/lib/gcc/x86_64-pc-linux-gnu/5.4.0/include/g++-v5/bits/char_traits.h
DA:243,29
DA:267,34
DA:288,15
DA:290,14
LF:4
LH:4
end_of_record
SF:/usr/lib/gcc/x86_64-pc-linux-gnu/5.4.0/include/g++-v5/bits/ios_base.h
DA:166,6
LF:1
LH:1
end_of_record
SF:/usr/lib/gcc/x86_64-pc-linux-gnu/5.4.0/include/g++-v5/bits/locale_facets.h
FN:872,_ZNKSt5ctypeIcE5widenEc
FN:1082,_ZNKSt5ctypeIcE8do_widenEc
FNDA:0,_ZNKSt5ctypeIcE5widenEc
FNDA:0,_ZNKSt5ctypeIcE8do_widenEc
FNF:2
FNH:0
DA:872,0
DA:874,0
DA:875,0
DA:876,0
DA:877,0
DA:1082,0
DA:1083,0
LF:7
LH:0
end_of_record
SF:/usr/lib/gcc/x86_64-pc-linux-gnu/5.4.0/include/g++-v5/bits/stl_algobase.h
DA:224,3
LF:1
LH:1
end_of_record
SF:/usr/lib/gcc/x86_64-pc-linux-gnu/5.4.0/include/g++-v5/bits/stl_construct.h
DA:75,3
DA:102,18
LF:2
LH:2
end_of_record
SF:/usr/lib/gcc/x86_64-pc-linux-gnu/5.4.0/include/g++-v5/bits/stl_iterator.h
DA:993,6
DA:1006,3
LF:2
LH:2
end_of_record
SF:/usr/lib/gcc/x86_64-pc-linux-gnu/5.4.0/include/g++-v5/bits/stl_iterator_base_funcs.h
DA:96,17
LF:1
LH:1
end_of_record
SF:/usr/lib/gcc/x86_64-pc-linux-gnu/5.4.0/include/g++-v5/bits/stl_uninitialized.h
FNDA:3,_ZNSt20__uninitialized_copyILb0EE13__uninit_copyISt13move_iteratorIPNSt7__cxx1112basic_stringIcSt11char_traitsIcESaIcEEEES9_EET0_T_SC_SB_
FNF:1
FNH:1
DA:68,3
DA:74,9
DA:76,3
DA:126,3
LF:4
LH:4
end_of_record
SF:/usr/lib/gcc/x86_64-pc-linux-gnu/5.4.0/include/g++-v5/bits/stl_vector.h
FN:167,_ZNSt12_Vector_baseINSt7__cxx1112basic_stringIcSt11char_traitsIcESaIcEEESaIS5_EE11_M_allocateEm.isra.30
FN:655,_ZNKSt6vectorINSt7__cxx1112basic_stringIcSt11char_traitsIcESaIcEEESaIS5_EE12_M_check_lenEmPKc.isra.27
FNDA:3,_ZNSt12_Vector_baseINSt7__cxx1112basic_stringIcSt11char_traitsIcESaIcEEESaIS5_EE11_M_allocateEm.isra.30
FNDA:1,_ZNSt6vectorINSt7__cxx1112basic_stringIcSt11char_traitsIcESaIcEEESaIS5_EED2Ev
FNDA:3,_ZNKSt6vectorINSt7__cxx1112basic_stringIcSt11char_traitsIcESaIcEEESaIS5_EE12_M_check_lenEmPKc.isra.27
FNF:3
FNH:3
DA:79,1
DA:87,1
DA:161,2
DA:167,3
DA:170,6
DA:177,4
DA:423,1
DA:424,1
DA:425,1
DA:655,10
DA:780,2
DA:802,4
DA:803,0
DA:1422,3
DA:1424,3
DA:1425,0
DA:1427,6
DA:1428,3
LF:18
LH:16
end_of_record
SF:/usr/lib/gcc/x86_64-pc-linux-gnu/5.4.0/include/g++-v5/bits/vector.tcc
FNDA:4,_ZNSt6vectorINSt7__cxx1112basic_stringIcSt11char_traitsIcESaIcEEESaIS5_EE12emplace_backIJS5_EEEvDpOT_
FNDA:3,_ZNSt6vectorINSt7__cxx1112basic_stringIcSt11char_traitsIcESaIcEEESaIS5_EE19_M_emplace_back_auxIJS5_EEEvDpOT_
FNF:2
FNH:2
DA:91,4
DA:94,4
DA:98,1
DA:101,3
DA:102,4
DA:407,3
DA:411,3
DA:412,3
DA:416,3
DA:422,3
DA:425,3
DA:436,3
DA:440,3
DA:441,3
DA:442,3
DA:443,3
DA:444,3
LF:17
LH:17
end_of_record
SF:/usr/lib/gcc/x86_64-pc-linux-gnu/5.4.0/include/g++-v5/ext/new_allocator.h
DA:101,3
DA:102,0
DA:104,3
DA:110,5
DA:120,4
LF:5
LH:4
end_of_record
SF:/usr/lib/gcc/x86_64-pc-linux-gnu/5.4.0/include/g++-v5/iostream
DA:74,1
LF:1
LH:1
end_of_record
SF:/usr/lib/gcc/x86_64-pc-linux-gnu/5.4.0/include/g++-v5/ostream
DA:113,1
DA:175,0
DA:202,0
DA:509,16
DA:561,53
LF:5
LH:3
end_of_record
SF:/usr/lib/gcc/x86_64-pc-linux-gnu/5.4.0/include/g++-v5/sstream
FN:65,_ZNSt7__cxx1115basic_stringbufIcSt11char_traitsIcESaIcEED0Ev
FNDA:0,_ZNSt7__cxx1115basic_stringbufIcSt11char_traitsIcESaIcEED0Ev
FNDA:2,_ZNSt7__cxx1115basic_stringbufIcSt11char_traitsIcESaIcEED2Ev
FNF:2
FNH:1
DA:65,4
LF:1
LH:1
end_of_record
SF:/usr/lib/gcc/x86_64-pc-linux-gnu/5.4.0/include/g++-v5/streambuf
DA:198,2
LF:1
LH:1
end_of_record
SF:/usr/lib/gcc/x86_64-pc-linux-gnu/5.4.0/include/g++-v5/bits/basic_string.h
DA:106,149
DA:109,149
DA:127,23
DA:131,172
DA:141,126
DA:151,37
DA:159,7
DA:165,88
DA:179,147
DA:195,81
DA:296,88
DA:400,26
DA:454,55
DA:456,165
DA:479,18
DA:487,1
DA:543,149
DA:559,1
DA:589,46
DA:834,122
DA:855,211
DA:871,3
DA:872,0
DA:892,1
DA:893,0
DA:897,1
DA:961,127
DA:983,16
DA:1095,0
DA:1532,3
DA:1935,3
DA:4911,0
DA:4915,0
DA:4927,32
DA:4939,6
DA:5177,1
DA:5260,0
LF:37
LH:31
end_of_record
SF:/usr/lib/gcc/x86_64-pc-linux-gnu/5.4.0/include/g++-v5/bits/basic_string.tcc
DA:210,88
DA:215,88
DA:216,0
DA:219,88
DA:221,88
DA:223,6
DA:224,6
DA:236,88
DA:237,88
LF:9
LH:8
end_of_record
SF:/usr/lib/gcc/x86_64-pc-linux-gnu/5.4.0/include/g++-v5/bits/char_traits.h
DA:243,156
DA:260,0
DA:262,0
DA:267,100
DA:288,86
DA:290,70
LF:6
LH:4
end_of_record
SF:/usr/lib/gcc/x86_64-pc-linux-gnu/5.4.0/include/g++-v5/bits/ios_base.h
DA:84,4
DA:88,4
DA:100,4
DA:104,4
DA:166,6
DA:665,4
DA:1024,4
DA:1027,4
LF:8
LH:8
end_of_record
SF:/usr/lib/gcc/x86_64-pc-linux-gnu/5.4.0/include/g++-v5/iostream
DA:74,44
LF:1
LH:1
end_of_record
SF:/usr/lib/gcc/x86_64-pc-linux-gnu/5.4.0/include/g++-v5/bits/locale_facets.h
DA:872,0
DA:874,0
DA:875,0
DA:876,0
DA:877,0
DA:1082,0
DA:1083,0
LF:7
LH:0
end_of_record
SF:/usr/lib/gcc/x86_64-pc-linux-gnu/5.4.0/include/g++-v5/ext/new_allocator.h
DA:101,6
DA:102,0
DA:104,6
DA:110,15
DA:120,8
LF:5
LH:4
end_of_record
SF:/usr/lib/gcc/x86_64-pc-linux-gnu/5.4.0/include/g++-v5/ostream
DA:113,4
DA:175,0
DA:202,0
DA:509,28
DA:561,115
LF:5
LH:3
end_of_record
SF:/usr/lib/gcc/x86_64-pc-linux-gnu/5.4.0/include/g++-v5/sstream
DA:65,14
DA:766,1
LF:2
LH:2
end_of_record
SF:/usr/lib/gcc/x86_64-pc-linux-gnu/5.4.0/include/g++-v5/bits/stl_algobase.h
DA:224,6
DA:383,0
DA:384,0
LF:3
LH:1
end_of_record
SF:/usr/lib/gcc/x86_64-pc-linux-gnu/5.4.0/include/g++-v5/bits/stl_construct.h
DA:75,6
DA:102,37
LF:2
LH:2
end_of_record
SF:/usr/lib/gcc/x86_64-pc-linux-gnu/5.4.0/include/g++-v5/bits/stl_iterator.h
DA:741,0
DA:763,0
DA:993,12
DA:1006,6
LF:4
LH:2
end_of_record
SF:/usr/lib/gcc/x86_64-pc-linux-gnu/5.4.0/include/g++-v5/bits/stl_iterator_base_funcs.h
DA:96,88
LF:1
LH:1
end_of_record
SF:/usr/lib/gcc/x86_64-pc-linux-gnu/5.4.0/include/g++-v5/bits/stl_uninitialized.h
DA:68,6
DA:74,18
DA:76,6
DA:126,6
LF:4
LH:4
end_of_record
SF:/usr/lib/gcc/x86_64-pc-linux-gnu/5.4.0/include/g++-v5/bits/stl_vector.h
DA:79,3
DA:87,3
DA:161,6
DA:167,6
DA:170,12
DA:177,9
DA:423,3
DA:424,3
DA:425,3
DA:655,16
DA:780,2
DA:802,4
DA:803,0
DA:932,0
DA:1422,6
DA:1424,6
DA:1425,0
DA:1427,12
DA:1428,6
LF:19
LH:16
end_of_record
SF:/usr/lib/gcc/x86_64-pc-linux-gnu/5.4.0/include/g++-v5/streambuf
DA:198,7
LF:1
LH:1
end_of_record
SF:/home/ssynx/Devel/erebos-api/src/stringutils.h
DA:36,1
DA:37,1
DA:39,1
DA:40,1
DA:41,1
DA:52,3
DA:53,14
DA:61,3
DA:62,15
DA:70,3
DA:71,30
DA:79,2
DA:80,22
DA:81,11
DA:92,2
DA:93,24
DA:94,12
DA:107,9
DA:109,9
DA:110,0
DA:112,9
DA:114,52
DA:115,43
DA:117,9
DA:127,2
DA:139,6
DA:141,3
DA:143,3
DA:146,2
DA:158,254
DA:159,120
DA:160,7
DA:188,2
DA:190,4
DA:193,12
DA:194,4
DA:195,2
DA:203,3
DA:204,19
DA:205,10
DA:218,3
DA:219,19
DA:220,10
DA:327,1
DA:328,2
LF:45
LH:44
end_of_record
SF:/home/ssynx/Devel/erebos-api/test/test-strutils.cpp
DA:4,1
DA:6,1
DA:9,2
DA:11,1
DA:12,1
DA:13,1
DA:15,1
DA:18,2
DA:20,1
DA:21,1
DA:23,1
DA:24,1
DA:26,1
DA:27,1
DA:29,1
DA:32,2
DA:34,1
DA:35,1
DA:37,1
DA:38,1
DA:40,1
DA:41,1
DA:43,1
DA:46,2
DA:48,1
DA:49,1
DA:51,1
DA:52,1
DA:54,1
DA:55,1
DA:57,1
DA:60,2
DA:62,2
DA:63,1
DA:65,2
DA:66,1
DA:68,1
DA:71,2
DA:73,2
DA:74,1
DA:76,2
DA:77,1
DA:79,1
DA:82,2
DA:84,3
DA:85,1
DA:87,1
DA:91,2
DA:93,1
DA:94,2
DA:96,1
DA:97,1
DA:98,1
DA:100,2
DA:102,1
DA:103,1
DA:104,1
DA:106,1
DA:109,2
DA:113,1
DA:115,1
DA:116,1
DA:118,1
DA:119,1
DA:121,1
DA:122,1
DA:124,1
DA:127,2
DA:131,1
DA:133,1
DA:134,1
DA:136,1
DA:137,1
DA:139,1
DA:140,1
DA:142,1
DA:145,2
DA:148,1
DA:149,3
DA:150,1
DA:153,3
DA:154,1
DA:156,1
DA:166,1
DA:167,2
LF:85
LH:85
end_of_record
SF:/usr/lib/gcc/x86_64-pc-linux-gnu/5.4.0/include/g++-v5/bits/vector.tcc
DA:91,8
DA:94,8
DA:98,2
DA:101,6
DA:102,8
DA:407,6
DA:411,6
DA:412,6
DA:416,6
DA:422,6
DA:425,6
DA:427,0
DA:429,0
DA:430,0
DA:434,0
DA:436,6
DA:440,6
DA:441,6
DA:442,6
DA:443,6
DA:444,6
LF:21
LH:17
end_of_record
TN:
SF:/home/ssynx/Devel/erebos-api/test/test-input.cpp
FN:1,main
FNDA:1,main
FNF:1
FNH:1
DA:1,1
LF:1
LH:1
end_of_record
TN:
SF:/home/ssynx/Devel/erebos-api/src/framework.h
FN:176,_ZN6erebos13var_to_stringIiEENSt7__cxx1112basic_stringIcSt11char_traitsIcESaIcEEERKT_
FNDA:0,_ZN6erebos13var_to_stringIiEENSt7__cxx1112basic_stringIcSt11char_traitsIcESaIcEEERKT_
FNF:1
FNH:0
DA:176,0
DA:177,0
DA:178,0
DA:179,0
LF:4
LH:0
end_of_record
SF:/home/ssynx/Devel/erebos-api/src/stringutils.h
FNDA:0,_ZN6erebos7strutil7replaceERNSt7__cxx1112basic_stringIcSt11char_traitsIcESaIcEEERKS6_S9_RKm
FNF:1
FNH:0
DA:127,0
DA:139,0
DA:141,0
DA:143,0
DA:146,0
LF:5
LH:0
end_of_record
SF:/home/ssynx/Devel/erebos-api/src/time_utils.cpp
FN:7,_ZN6erebos4TimeC2EP2tm
FN:9,_ZN6erebos13get_localtimeEv
FN:44,_GLOBAL__sub_I__ZN6erebos4TimeC2EP2tm
FNDA:0,_ZN6erebos4TimeC2EP2tm
FNDA:0,_ZNK6erebos4Time9to_stringENSt7__cxx1112basic_stringIcSt11char_traitsIcESaIcEEE
FNDA:0,_ZN6erebos13get_localtimeEv
FNDA:8,_GLOBAL__sub_I__ZN6erebos4TimeC2EP2tm
FNF:4
FNH:1
DA:7,0
DA:9,0
DA:11,0
DA:12,0
DA:13,0
DA:14,0
DA:15,0
DA:16,0
DA:17,0
DA:19,0
DA:21,0
DA:22,0
DA:23,0
DA:24,0
DA:25,0
DA:26,0
DA:27,0
DA:29,0
DA:32,0
DA:33,0
DA:37,0
DA:38,0
DA:44,16
LF:23
LH:1
end_of_record
SF:/usr/lib/gcc/x86_64-pc-linux-gnu/5.4.0/include/g++-v5/bits/basic_string.h
FN:109,_ZNSt7__cxx1112basic_stringIcSt11char_traitsIcESaIcEEC2EPKcRKS3_.isra.21
FNDA:0,_ZNSt7__cxx1112basic_stringIcSt11char_traitsIcESaIcEEC2EPKcRKS3_.isra.21
FNF:1
FNH:0
DA:106,0
DA:109,0
DA:127,0
DA:131,0
DA:141,0
DA:151,0
DA:159,0
DA:165,0
DA:179,0
DA:195,0
DA:296,0
DA:454,0
DA:456,0
DA:479,0
DA:487,0
DA:543,0
DA:1532,0
DA:1935,0
LF:18
LH:0
end_of_record
SF:/usr/lib/gcc/x86_64-pc-linux-gnu/5.4.0/include/g++-v5/bits/basic_string.tcc
FNDA:0,_ZNSt7__cxx1112basic_stringIcSt11char_traitsIcESaIcEE12_M_constructIPcEEvT_S7_St20forward_iterator_tag.isra.24
FNDA:0,_ZNSt7__cxx1112basic_stringIcSt11char_traitsIcESaIcEE12_M_constructIPKcEEvT_S8_St20forward_iterator_tag.isra.19
FNF:2
FNH:0
DA:210,0
DA:215,0
DA:216,0
DA:219,0
DA:221,0
DA:223,0
DA:224,0
DA:236,0
DA:237,0
LF:9
LH:0
end_of_record
SF:/usr/lib/gcc/x86_64-pc-linux-gnu/5.4.0/include/g++-v5/bits/char_traits.h
DA:243,0
DA:267,0
DA:288,0
DA:290,0
LF:4
LH:0
end_of_record
SF:/usr/lib/gcc/x86_64-pc-linux-gnu/5.4.0/include/g++-v5/bits/stl_iterator_base_funcs.h
DA:96,0
LF:1
LH:0
end_of_record
SF:/usr/lib/gcc/x86_64-pc-linux-gnu/5.4.0/include/g++-v5/ext/new_allocator.h
DA:110,0
LF:1
LH:0
end_of_record
SF:/usr/lib/gcc/x86_64-pc-linux-gnu/5.4.0/include/g++-v5/iostream
DA:74,8
LF:1
LH:1
end_of_record
SF:/usr/lib/gcc/x86_64-pc-linux-gnu/5.4.0/include/g++-v5/sstream
FN:65,_ZNSt7__cxx1115basic_stringbufIcSt11char_traitsIcESaIcEED0Ev
FNDA:0,_ZNSt7__cxx1115basic_stringbufIcSt11char_traitsIcESaIcEED0Ev
FNDA:0,_ZNSt7__cxx1115basic_stringbufIcSt11char_traitsIcESaIcEED2Ev
FNF:2
FNH:0
DA:65,0
DA:766,0
LF:2
LH:0
end_of_record
SF:/usr/lib/gcc/x86_64-pc-linux-gnu/5.4.0/include/g++-v5/streambuf
DA:198,0
LF:1
LH:0
end_of_record
TN:
SF:/home/ssynx/Devel/erebos-api/test/test-misc.cpp
FN:1,main
FNDA:1,main
FNF:1
FNH:1
DA:1,1
LF:1
LH:1
end_of_record
TN:
SF:/home/ssynx/Devel/erebos-api/test/test-time.cpp
FN:1,main
FNDA:1,main
FNF:1
FNH:1
DA:1,1
LF:1
LH:1
end_of_record
TN:
SF:/home/ssynx/Devel/erebos-api/src/framework.cpp
FN:16,_ZN6erebos17get_prompt_answerERKNSt7__cxx1112basic_stringIcSt11char_traitsIcESaIcEEES7_RKb
FN:82,_GLOBAL__sub_I__ZN6erebos12get_exe_pathB5cxx11Ev
FNDA:0,_ZN6erebos12get_exe_pathB5cxx11Ev
FNDA:14,_ZN6erebos13to_unix_slashERKNSt7__cxx1112basic_stringIcSt11char_traitsIcESaIcEEE
FNDA:0,_ZN6erebos17get_prompt_answerERKNSt7__cxx1112basic_stringIcSt11char_traitsIcESaIcEEES7_RKb
FNDA:4,_ZN6erebos12parse_quotesERKNSt7__cxx1112basic_stringIcSt11char_traitsIcESaIcEEE
FNDA:2,_ZN6erebos9parse_argERKNSt7__cxx1112basic_stringIcSt11char_traitsIcESaIcEEERSt6vectorIS5_SaIS5_EE
FNDA:8,_GLOBAL__sub_I__ZN6erebos12get_exe_pathB5cxx11Ev
FNF:6
FNH:4
DA:6,0
DA:7,0
DA:10,14
DA:13,14
DA:16,0
DA:19,0
DA:21,0
DA:23,0
DA:25,0
DA:28,0
DA:29,0
DA:30,0
DA:36,4
DA:38,4
DA:39,1
DA:42,3
DA:48,56
DA:50,29
DA:60,2
DA:61,10
DA:64,4
DA:67,4
DA:68,1
DA:69,15
DA:71,7
DA:74,27
DA:76,12
DA:80,4
DA:82,18
LF:29
LH:19
end_of_record
SF:/home/ssynx/Devel/erebos-api/src/framework.h
FNDA:0,_ZN6erebos7printlnINSt7__cxx1112basic_stringIcSt11char_traitsIcESaIcEEEJEEEvRKT_DpRKT0_
FNDA:0,_ZN6erebos5printINSt7__cxx1112basic_stringIcSt11char_traitsIcESaIcEEEJA7_cEEEvRKT_DpRKT0_
FNF:2
FNH:0
DA:315,0
DA:318,0
DA:335,0
DA:336,0
DA:338,0
LF:5
LH:0
end_of_record
SF:/home/ssynx/Devel/erebos-api/src/stringutils.h
DA:71,27
DA:158,254
DA:159,120
DA:160,7
LF:4
LH:4
end_of_record
SF:/usr/lib/gcc/x86_64-pc-linux-gnu/5.4.0/include/g++-v5/bits/basic_string.h
FN:109,_ZNSt7__cxx1112basic_stringIcSt11char_traitsIcESaIcEEC2EPKcRKS3_.isra.35
FNDA:1,_ZNSt7__cxx1112basic_stringIcSt11char_traitsIcESaIcEEC2EPKcRKS3_.isra.35
FNF:1
FNH:1
DA:106,9
DA:109,31
DA:127,5
DA:131,34
DA:141,25
DA:151,6
DA:159,2
DA:165,20
DA:179,7
DA:195,20
DA:296,20
DA:400,19
DA:454,1
DA:456,3
DA:479,5
DA:487,1
DA:543,9
DA:834,56
DA:855,120
DA:871,3
DA:872,0
DA:961,46
DA:4939,4
DA:5177,0
LF:24
LH:22
end_of_record
SF:/usr/lib/gcc/x86_64-pc-linux-gnu/5.4.0/include/g++-v5/bits/basic_string.tcc
FNDA:19,_ZNSt7__cxx1112basic_stringIcSt11char_traitsIcESaIcEE12_M_constructIPcEEvT_S7_St20forward_iterator_tag.isra.38
FNDA:1,_ZNSt7__cxx1112basic_stringIcSt11char_traitsIcESaIcEE12_M_constructIPKcEEvT_S8_St20forward_iterator_tag.isra.33
FNF:2
FNH:2
DA:210,20
DA:215,20
DA:216,0
DA:219,20
DA:221,20
DA:223,1
DA:224,1
DA:236,20
DA:237,20
LF:9
LH:8
end_of_record
SF:/usr/lib/gcc/x86_64-pc-linux-gnu/5.4.0/include/g++-v5/bits/char_traits.h
DA:243,29
DA:267,1
DA:288,20
DA:290,15
LF:4
LH:4
end_of_record
SF:/usr/lib/gcc/x86_64-pc-linux-gnu/5.4.0/include/g++-v5/bits/stl_algobase.h
DA:224,3
LF:1
LH:1
end_of_record
SF:/usr/lib/gcc/x86_64-pc-linux-gnu/5.4.0/include/g++-v5/bits/stl_construct.h
DA:75,3
DA:102,9
LF:2
LH:2
end_of_record
SF:/usr/lib/gcc/x86_64-pc-linux-gnu/5.4.0/include/g++-v5/bits/stl_iterator.h
DA:993,6
DA:1006,3
LF:2
LH:2
end_of_record
SF:/usr/lib/gcc/x86_64-pc-linux-gnu/5.4.0/include/g++-v5/bits/stl_iterator_base_funcs.h
DA:96,20
LF:1
LH:1
end_of_record
SF:/usr/lib/gcc/x86_64-pc-linux-gnu/5.4.0/include/g++-v5/bits/stl_uninitialized.h
FNDA:3,_ZNSt20__uninitialized_copyILb0EE13__uninit_copyISt13move_iteratorIPNSt7__cxx1112basic_stringIcSt11char_traitsIcESaIcEEEES9_EET0_T_SC_SB_
FNF:1
FNH:1
DA:68,3
DA:74,9
DA:76,3
DA:126,3
LF:4
LH:4
end_of_record
SF:/usr/lib/gcc/x86_64-pc-linux-gnu/5.4.0/include/g++-v5/bits/stl_vector.h
FN:167,_ZNSt12_Vector_baseINSt7__cxx1112basic_stringIcSt11char_traitsIcESaIcEEESaIS5_EE11_M_allocateEm.isra.30
FN:655,_ZNKSt6vectorINSt7__cxx1112basic_stringIcSt11char_traitsIcESaIcEEESaIS5_EE12_M_check_lenEmPKc
FNDA:3,_ZNSt12_Vector_baseINSt7__cxx1112basic_stringIcSt11char_traitsIcESaIcEEESaIS5_EE11_M_allocateEm.isra.30
FNDA:3,_ZNKSt6vectorINSt7__cxx1112basic_stringIcSt11char_traitsIcESaIcEEESaIS5_EE12_M_check_lenEmPKc
FNF:2
FNH:2
DA:167,3
DA:170,6
DA:177,3
DA:655,6
DA:1422,3
DA:1424,3
DA:1425,0
DA:1427,6
DA:1428,3
LF:9
LH:8
end_of_record
SF:/usr/lib/gcc/x86_64-pc-linux-gnu/5.4.0/include/g++-v5/bits/vector.tcc
FNDA:4,_ZNSt6vectorINSt7__cxx1112basic_stringIcSt11char_traitsIcESaIcEEESaIS5_EE12emplace_backIJRS5_EEEvDpOT_
FNDA:3,_ZNSt6vectorINSt7__cxx1112basic_stringIcSt11char_traitsIcESaIcEEESaIS5_EE19_M_emplace_back_auxIJRS5_EEEvDpOT_
FNF:2
FNH:2
DA:91,4
DA:94,4
DA:98,1
DA:101,3
DA:102,4
DA:407,3
DA:411,3
DA:412,3
DA:416,3
DA:422,3
DA:425,3
DA:427,0
DA:429,0
DA:430,0
DA:434,0
DA:436,3
DA:440,3
DA:441,3
DA:442,3
DA:443,3
DA:444,3
LF:21
LH:17
end_of_record
SF:/usr/lib/gcc/x86_64-pc-linux-gnu/5.4.0/include/g++-v5/ext/new_allocator.h
DA:101,3
DA:102,0
DA:104,3
DA:110,2
DA:120,4
LF:5
LH:4
end_of_record
SF:/usr/lib/gcc/x86_64-pc-linux-gnu/5.4.0/include/g++-v5/iostream
DA:74,8
LF:1
LH:1
end_of_record
SF:/usr/lib/gcc/x86_64-pc-linux-gnu/5.4.0/include/g++-v5/ostream
DA:509,0
LF:1
LH:0
end_of_record
TN:
SF:/home/ssynx/Devel/erebos-api/test/test-native.cpp
FN:6,main
FN:13,_GLOBAL__sub_I_main
FNDA:1,main
FNDA:1,_GLOBAL__sub_I_main
FNF:2
FNH:2
DA:6,1
DA:8,1
DA:10,1
DA:13,2
LF:4
LH:4
end_of_record
SF:/usr/lib/gcc/x86_64-pc-linux-gnu/5.4.0/include/g++-v5/bits/char_traits.h
DA:267,2
LF:1
LH:1
end_of_record
SF:/usr/lib/gcc/x86_64-pc-linux-gnu/5.4.0/include/g++-v5/bits/locale_facets.h
FN:872,_ZNKSt5ctypeIcE5widenEc
FN:1082,_ZNKSt5ctypeIcE8do_widenEc
FNDA:0,_ZNKSt5ctypeIcE5widenEc
FNDA:0,_ZNKSt5ctypeIcE8do_widenEc
FNF:2
FNH:0
DA:872,0
DA:874,0
DA:875,0
DA:876,0
DA:877,0
DA:1082,0
DA:1083,0
LF:7
LH:0
end_of_record
SF:/usr/lib/gcc/x86_64-pc-linux-gnu/5.4.0/include/g++-v5/iostream
DA:74,1
LF:1
LH:1
end_of_record
SF:/usr/lib/gcc/x86_64-pc-linux-gnu/5.4.0/include/g++-v5/ostream
DA:113,1
DA:509,1
DA:561,4
LF:3
LH:3
end_of_record
TN:
SF:/home/ssynx/Devel/erebos-api/src/framework.h
FN:102,_ZN6erebos10hex_to_intERKNSt7__cxx1112basic_stringIcSt11char_traitsIcESaIcEEE
FNDA:5,_ZN6erebos10hex_to_intERKNSt7__cxx1112basic_stringIcSt11char_traitsIcESaIcEEE
FNDA:19,_ZN6erebos11byte_to_hexB5cxx11Eh
FNDA:2,_ZN6erebos11byte_to_hexB5cxx11EPhj
FNDA:3,_ZN6erebos11byte_to_hexIiEENSt7__cxx1112basic_stringIcSt11char_traitsIcESaIcEEET_
FNF:4
FNH:4
DA:102,5
DA:104,5
DA:108,8
DA:109,4
DA:110,4
DA:119,19
DA:121,19
DA:124,19
DA:125,19
DA:127,19
DA:128,19
DA:130,19
DA:139,2
DA:143,10
DA:144,8
DA:146,2
DA:156,3
DA:162,27
DA:163,24
DA:165,3
LF:20
LH:20
end_of_record
SF:/home/ssynx/Devel/erebos-api/test/test-framework.cpp
FN:170,_GLOBAL__sub_I_main
FNDA:1,main
FNDA:1,_GLOBAL__sub_I_main
FNF:2
FNH:2
DA:6,1
DA:8,1
DA:11,2
DA:13,2
DA:14,1
DA:16,2
DA:17,1
DA:19,2
DA:20,1
DA:22,2
DA:23,1
DA:25,2
DA:26,1
DA:28,1
DA:31,2
DA:33,2
DA:34,1
DA:36,2
DA:37,1
DA:39,2
DA:40,1
DA:42,1
DA:45,2
DA:47,1
DA:49,2
DA:50,1
DA:52,1
DA:53,2
DA:54,1
DA:56,1
DA:59,2
DA:62,2
DA:63,1
DA:66,2
DA:67,1
DA:70,2
DA:71,1
DA:73,1
DA:90,2
DA:92,3
DA:93,1
DA:95,3
DA:96,1
DA:98,3
DA:99,1
DA:101,3
DA:102,1
DA:104,3
DA:105,1
DA:107,1
DA:110,2
DA:112,3
DA:113,1
DA:115,3
DA:116,1
DA:118,3
DA:119,1
DA:121,3
DA:122,1
DA:124,1
DA:127,2
DA:129,1
DA:131,2
DA:137,1
DA:139,2
DA:142,1
DA:159,2
DA:161,1
DA:162,1
DA:164,1
DA:167,1
DA:170,2
LF:72
LH:72
end_of_record
SF:/usr/lib/gcc/x86_64-pc-linux-gnu/5.4.0/include/g++-v5/bits/basic_string.h
FN:109,_ZNSt7__cxx1112basic_stringIcSt11char_traitsIcESaIcEEC2EPKcRKS3_.isra.23
FNDA:16,_ZNSt7__cxx1112basic_stringIcSt11char_traitsIcESaIcEEC2EPKcRKS3_.isra.23
FNF:1
FNH:1
DA:106,62
DA:109,45
DA:127,4
DA:131,49
DA:141,40
DA:151,8
DA:159,4
DA:165,20
DA:179,62
DA:195,16
DA:296,20
DA:454,16
DA:456,48
DA:543,62
DA:589,17
DA:961,38
DA:983,16
DA:4927,17
DA:5177,0
LF:19
LH:18
end_of_record
SF:/usr/lib/gcc/x86_64-pc-linux-gnu/5.4.0/include/g++-v5/bits/basic_string.tcc
FNDA:20,_ZNSt7__cxx1112basic_stringIcSt11char_traitsIcESaIcEE12_M_constructIPKcEEvT_S8_St20forward_iterator_tag.isra.20
FNF:1
FNH:1
DA:210,20
DA:215,20
DA:216,0
DA:219,20
DA:221,20
DA:223,4
DA:224,4
DA:236,20
DA:237,20
LF:9
LH:8
end_of_record
SF:/usr/lib/gcc/x86_64-pc-linux-gnu/5.4.0/include/g++-v5/bits/char_traits.h
DA:243,49
DA:267,30
DA:288,20
DA:290,16
LF:4
LH:4
end_of_record
SF:/usr/lib/gcc/x86_64-pc-linux-gnu/5.4.0/include/g++-v5/bits/ios_base.h
FN:84,_ZSt3hexRSt8ios_base
FNDA:4,_ZSt3hexRSt8ios_base
FNF:1
FNH:1
DA:84,4
DA:88,4
DA:100,4
DA:104,4
DA:665,4
DA:1024,4
DA:1027,4
LF:7
LH:7
end_of_record
SF:/usr/lib/gcc/x86_64-pc-linux-gnu/5.4.0/include/g++-v5/bits/locale_facets.h
FN:872,_ZNKSt5ctypeIcE5widenEc
FN:1082,_ZNKSt5ctypeIcE8do_widenEc
FNDA:0,_ZNKSt5ctypeIcE5widenEc
FNDA:0,_ZNKSt5ctypeIcE8do_widenEc
FNF:2
FNH:0
DA:872,0
DA:874,0
DA:875,0
DA:876,0
DA:877,0
DA:1082,0
DA:1083,0
LF:7
LH:0
end_of_record
SF:/usr/lib/gcc/x86_64-pc-linux-gnu/5.4.0/include/g++-v5/bits/stl_construct.h
DA:102,10
LF:1
LH:1
end_of_record
SF:/usr/lib/gcc/x86_64-pc-linux-gnu/5.4.0/include/g++-v5/bits/stl_iterator_base_funcs.h
DA:96,20
LF:1
LH:1
end_of_record
SF:/usr/lib/gcc/x86_64-pc-linux-gnu/5.4.0/include/g++-v5/bits/stl_vector.h
FNDA:2,_ZNSt6vectorINSt7__cxx1112basic_stringIcSt11char_traitsIcESaIcEEESaIS5_EED2Ev
FNF:1
FNH:1
DA:79,2
DA:87,2
DA:161,4
DA:177,2
DA:423,2
DA:424,2
DA:425,2
LF:7
LH:7
end_of_record
SF:/usr/lib/gcc/x86_64-pc-linux-gnu/5.4.0/include/g++-v5/ext/new_allocator.h
DA:110,7
LF:1
LH:1
end_of_record
SF:/usr/lib/gcc/x86_64-pc-linux-gnu/5.4.0/include/g++-v5/iostream
DA:74,1
LF:1
LH:1
end_of_record
SF:/usr/lib/gcc/x86_64-pc-linux-gnu/5.4.0/include/g++-v5/istream
DA:133,4
LF:1
LH:1
end_of_record
SF:/usr/lib/gcc/x86_64-pc-linux-gnu/5.4.0/include/g++-v5/ostream
DA:113,1
DA:509,9
DA:561,36
LF:3
LH:3
end_of_record
SF:/usr/lib/gcc/x86_64-pc-linux-gnu/5.4.0/include/g++-v5/sstream
FN:65,_ZNSt7__cxx1115basic_stringbufIcSt11char_traitsIcESaIcEED0Ev
FNDA:0,_ZNSt7__cxx1115basic_stringbufIcSt11char_traitsIcESaIcEED0Ev
FNDA:4,_ZNSt7__cxx1115basic_stringbufIcSt11char_traitsIcESaIcEED2Ev
FNF:2
FNH:1
DA:65,8
LF:1
LH:1
end_of_record
SF:/usr/lib/gcc/x86_64-pc-linux-gnu/5.4.0/include/g++-v5/streambuf
DA:198,4
LF:1
LH:1
end_of_record
TN:
SF:/home/ssynx/Devel/erebos-api/src/file.cpp
FN:7,_ZN6erebos4file8get_pathENSt7__cxx1112basic_stringIcSt11char_traitsIcESaIcEEE
FN:31,_ZN6erebos4file13get_extensionERKNSt7__cxx1112basic_stringIcSt11char_traitsIcESaIcEEE
FN:53,_ZN6erebos4file8get_nameENSt7__cxx1112basic_stringIcSt11char_traitsIcESaIcEEE
FN:75,_ZN6erebos4file12get_basenameENSt7__cxx1112basic_stringIcSt11char_traitsIcESaIcEEE
FN:97,_ZN6erebos4file10get_existsERKNSt7__cxx1112basic_stringIcSt11char_traitsIcESaIcEEE
FN:115,_ZN6erebos4file4readERKNSt7__cxx1112basic_stringIcSt11char_traitsIcESaIcEEE
FN:128,_ZN6erebos4file8read_binERKNSt7__cxx1112basic_stringIcSt11char_traitsIcESaIcEEEPm
FN:160,_ZN6erebos4file5writeERKNSt7__cxx1112basic_stringIcSt11char_traitsIcESaIcEEES8_b
FN:175,_ZN6erebos4file9write_binERKNSt7__cxx1112basic_stringIcSt11char_traitsIcESaIcEEERKNS_4DataEb
FN:196,_GLOBAL__sub_I__ZN6erebos4file8get_pathENSt7__cxx1112basic_stringIcSt11char_traitsIcESaIcEEE
FNDA:4,_ZN6erebos4file8get_pathENSt7__cxx1112basic_stringIcSt11char_traitsIcESaIcEEE
FNDA:0,_ZN6erebos4file13get_extensionERKNSt7__cxx1112basic_stringIcSt11char_traitsIcESaIcEEE
FNDA:5,_ZN6erebos4file8get_nameENSt7__cxx1112basic_stringIcSt11char_traitsIcESaIcEEE
FNDA:5,_ZN6erebos4file12get_basenameENSt7__cxx1112basic_stringIcSt11char_traitsIcESaIcEEE
FNDA:1,_ZN6erebos4file10get_existsERKNSt7__cxx1112basic_stringIcSt11char_traitsIcESaIcEEE
FNDA:1,_ZN6erebos4file4readERKNSt7__cxx1112basic_stringIcSt11char_traitsIcESaIcEEE
FNDA:0,_ZN6erebos4file8read_binERKNSt7__cxx1112basic_stringIcSt11char_traitsIcESaIcEEEPm
FNDA:1,_ZN6erebos4file5writeERKNSt7__cxx1112basic_stringIcSt11char_traitsIcESaIcEEES8_b
FNDA:0,_ZN6erebos4file9write_binERKNSt7__cxx1112basic_stringIcSt11char_traitsIcESaIcEEERKNS_4DataEb
FNDA:8,_GLOBAL__sub_I__ZN6erebos4file8get_pathENSt7__cxx1112basic_stringIcSt11char_traitsIcESaIcEEE
FNF:10
FNH:7
DA:7,4
DA:9,8
DA:13,4
DA:14,1
DA:16,27
DA:17,27
DA:18,3
DA:25,6
DA:31,0
DA:36,0
DA:37,0
DA:39,0
DA:40,0
DA:46,0
DA:47,0
DA:49,0
DA:53,5
DA:56,10
DA:60,5
DA:61,1
DA:63,92
DA:64,44
DA:69,4
DA:70,2
DA:75,5
DA:77,15
DA:81,5
DA:82,1
DA:84,36
DA:85,20
DA:90,4
DA:91,8
DA:97,1
DA:101,1
DA:108,1
DA:109,1
DA:110,1
DA:115,1
DA:116,2
DA:118,1
DA:119,0
DA:121,2
DA:122,1
DA:128,0
DA:131,0
DA:132,0
DA:137,0
DA:144,0
DA:145,0
DA:146,0
DA:149,0
DA:151,0
DA:152,0
DA:154,0
DA:156,0
DA:160,1
DA:161,2
DA:162,1
DA:163,0
DA:165,1
DA:167,1
DA:175,0
DA:180,0
DA:189,0
DA:192,0
DA:193,0
DA:195,0
DA:196,16
LF:68
LH:40
end_of_record
SF:/home/ssynx/Devel/erebos-api/src/stringutils.h
FN:107,_ZN6erebos7strutil3cutERKNSt7__cxx1112basic_stringIcSt11char_traitsIcESaIcEEERKmm
FNDA:9,_ZN6erebos7strutil3cutERKNSt7__cxx1112basic_stringIcSt11char_traitsIcESaIcEEERKmm
FNF:1
FNH:1
DA:107,9
DA:109,9
DA:110,0
DA:112,9
DA:114,52
DA:115,43
DA:117,9
LF:7
LH:6
end_of_record
SF:/home/ssynx/Devel/erebos-api/src/types.h
FN:158,_ZN6erebos4DataC2EPKcRKy
FN:168,_ZN6erebos4DataC2ERKS0_
FNDA:0,_ZN6erebos4DataC2EPKcRKy
FNDA:0,_ZN6erebos4DataC2ERKS0_
FNF:2
FNH:0
DA:134,0
DA:149,0
DA:158,0
DA:159,0
DA:160,0
DA:161,0
DA:162,0
DA:168,0
DA:169,0
DA:170,0
DA:171,0
DA:172,0
DA:179,0
DA:180,0
LF:14
LH:0
end_of_record
SF:/usr/include/bits/stdio2.h
DA:285,0
DA:288,0
DA:289,0
DA:290,0
DA:292,0
DA:293,0
DA:295,0
LF:7
LH:0
end_of_record
SF:/usr/include/bits/string3.h
DA:53,0
LF:1
LH:0
end_of_record
SF:/usr/lib/gcc/x86_64-pc-linux-gnu/5.4.0/include/g++-v5/bits/basic_string.h
FN:109,_ZNSt7__cxx1112basic_stringIcSt11char_traitsIcESaIcEEC2EPKcRKS3_.isra.22
FNDA:3,_ZNSt7__cxx1112basic_stringIcSt11char_traitsIcESaIcEEC2EPKcRKS3_.isra.22
FNF:1
FNH:1
DA:106,24
DA:109,23
DA:127,6
DA:131,30
DA:141,18
DA:151,7
DA:159,0
DA:165,9
DA:179,24
DA:195,8
DA:296,9
DA:400,5
DA:454,3
DA:456,9
DA:479,6
DA:487,0
DA:543,24
DA:589,18
DA:834,43
DA:855,91
DA:961,43
DA:5177,1
LF:22
LH:20
end_of_record
SF:/usr/lib/gcc/x86_64-pc-linux-gnu/5.4.0/include/g++-v5/bits/basic_string.tcc
FN:210,_ZNSt7__cxx1112basic_stringIcSt11char_traitsIcESaIcEE12_M_constructIPKcEEvT_S8_St20forward_iterator_tag.isra.20
FN:210,_ZNSt7__cxx1112basic_stringIcSt11char_traitsIcESaIcEE12_M_constructIPcEEvT_S7_St20forward_iterator_tag.isra.25
FNDA:6,_ZNSt7__cxx1112basic_stringIcSt11char_traitsIcESaIcEE12_M_constructIPcEEvT_S7_St20forward_iterator_tag.isra.25
FNDA:3,_ZNSt7__cxx1112basic_stringIcSt11char_traitsIcESaIcEE12_M_constructIPKcEEvT_S8_St20forward_iterator_tag.isra.20
FNF:2
FNH:2
DA:210,9
DA:215,9
DA:216,0
DA:219,9
DA:221,9
DA:223,0
DA:224,0
DA:236,9
DA:237,9
LF:9
LH:6
end_of_record
SF:/usr/lib/gcc/x86_64-pc-linux-gnu/5.4.0/include/g++-v5/bits/char_traits.h
DA:243,24
DA:267,3
DA:288,9
DA:290,5
LF:4
LH:4
end_of_record
SF:/usr/lib/gcc/x86_64-pc-linux-gnu/5.4.0/include/g++-v5/bits/stl_iterator_base_funcs.h
DA:96,9
LF:1
LH:1
end_of_record
SF:/usr/lib/gcc/x86_64-pc-linux-gnu/5.4.0/include/g++-v5/ext/new_allocator.h
DA:110,1
LF:1
LH:1
end_of_record
SF:/usr/lib/gcc/x86_64-pc-linux-gnu/5.4.0/include/g++-v5/fstream
DA:253,2
LF:1
LH:1
end_of_record
SF:/usr/lib/gcc/x86_64-pc-linux-gnu/5.4.0/include/g++-v5/iostream
DA:74,8
LF:1
LH:1
end_of_record
SF:/usr/lib/gcc/x86_64-pc-linux-gnu/5.4.0/include/g++-v5/sstream
FN:65,_ZNSt7__cxx1115basic_stringbufIcSt11char_traitsIcESaIcEED2Ev
FN:65,_ZNSt7__cxx1115basic_stringbufIcSt11char_traitsIcESaIcEED0Ev
FNDA:0,_ZNSt7__cxx1115basic_stringbufIcSt11char_traitsIcESaIcEED0Ev
FNDA:1,_ZNSt7__cxx1115basic_stringbufIcSt11char_traitsIcESaIcEED2Ev
FNF:2
FNH:1
DA:65,2
DA:766,1
LF:2
LH:2
end_of_record
SF:/usr/lib/gcc/x86_64-pc-linux-gnu/5.4.0/include/g++-v5/streambuf
DA:198,1
LF:1
LH:1
end_of_record
TN:
SF:/home/ssynx/Devel/erebos-api/src/logger.cpp
FN:11,_Z41__static_initialization_and_destruction_0ii
FN:13,_ZN6erebos6logger10set_streamERSo
FN:32,_ZN6erebos6logger10set_streamERKNSt7__cxx1112basic_stringIcSt11char_traitsIcESaIcEEE
FN:52,_ZN6erebos6logger12reset_streamEv
FN:70,_ZN6erebos6logger15set_data_formatERKNSt7__cxx1112basic_stringIcSt11char_traitsIcESaIcEEE
FN:75,_ZN6erebos6logger3logERKNSt7__cxx1112basic_stringIcSt11char_traitsIcESaIcEEERKNS0_9log_levelERKNS0_8log_typeE
FN:108,_GLOBAL__sub_I__ZN6erebos6logger10set_streamERSo
FNDA:0,_ZN6erebos6logger10set_streamERSo
FNDA:0,_ZN6erebos6logger10set_streamERKNSt7__cxx1112basic_stringIcSt11char_traitsIcESaIcEEE
FNDA:0,_ZN6erebos6logger12reset_streamEv
FNDA:0,_ZN6erebos6logger15set_data_formatERKNSt7__cxx1112basic_stringIcSt11char_traitsIcESaIcEEE
FNDA:0,_ZN6erebos6logger3logERKNSt7__cxx1112basic_stringIcSt11char_traitsIcESaIcEEERKNS0_9log_levelERKNS0_8log_typeE
FNDA:8,_GLOBAL__sub_I__ZN6erebos6logger10set_streamERSo
FNDA:8,_Z41__static_initialization_and_destruction_0ii
FNF:7
FNH:2
DA:11,8
DA:13,0
DA:15,0
DA:16,0
DA:17,0
DA:18,0
DA:19,0
DA:20,0
DA:21,0
DA:22,0
DA:25,0
DA:28,0
DA:29,0
DA:30,0
DA:32,0
DA:34,0
DA:35,0
DA:36,0
DA:37,0
DA:38,0
DA:39,0
DA:40,0
DA:41,0
DA:44,0
DA:47,0
DA:48,0
DA:49,0
DA:50,0
DA:52,0
DA:54,0
DA:55,0
DA:56,0
DA:57,0
DA:58,0
DA:59,0
DA:60,0
DA:61,0
DA:64,0
DA:67,0
DA:68,0
DA:70,0
DA:73,0
DA:75,0
DA:77,0
DA:80,0
DA:82,0
DA:83,0
DA:84,0
DA:85,0
DA:86,0
DA:87,0
DA:89,0
DA:90,0
DA:91,0
DA:92,0
DA:93,0
DA:94,0
DA:96,0
DA:100,0
DA:101,0
DA:103,0
DA:104,0
DA:108,24
LF:63
LH:2
end_of_record
SF:/usr/lib/gcc/x86_64-pc-linux-gnu/5.4.0/include/g++-v5/bits/basic_string.h
FN:109,_ZNSt7__cxx1112basic_stringIcSt11char_traitsIcESaIcEEC2EPKcRKS3_.isra.22
FNDA:8,_ZNSt7__cxx1112basic_stringIcSt11char_traitsIcESaIcEEC2EPKcRKS3_.isra.22
FNF:1
FNH:1
DA:106,0
DA:109,8
DA:127,0
DA:131,8
DA:141,8
DA:151,0
DA:159,0
DA:165,8
DA:179,0
DA:195,8
DA:296,8
DA:400,0
DA:454,8
DA:456,24
DA:543,0
DA:1095,0
DA:5177,0
LF:17
LH:8
end_of_record
SF:/usr/lib/gcc/x86_64-pc-linux-gnu/5.4.0/include/g++-v5/bits/basic_string.tcc
FN:210,_ZNSt7__cxx1112basic_stringIcSt11char_traitsIcESaIcEE12_M_constructIPKcEEvT_S8_St20forward_iterator_tag.isra.20
FN:210,_ZNSt7__cxx1112basic_stringIcSt11char_traitsIcESaIcEE12_M_constructIPcEEvT_S7_St20forward_iterator_tag.isra.25
FNDA:0,_ZNSt7__cxx1112basic_stringIcSt11char_traitsIcESaIcEE12_M_constructIPcEEvT_S7_St20forward_iterator_tag.isra.25
FNDA:8,_ZNSt7__cxx1112basic_stringIcSt11char_traitsIcESaIcEE12_M_constructIPKcEEvT_S8_St20forward_iterator_tag.isra.20
FNF:2
FNH:1
DA:210,8
DA:215,8
DA:216,0
DA:219,8
DA:221,8
DA:223,0
DA:224,0
DA:236,8
DA:237,8
LF:9
LH:6
end_of_record
SF:/usr/lib/gcc/x86_64-pc-linux-gnu/5.4.0/include/g++-v5/bits/char_traits.h
DA:243,8
DA:267,8
DA:288,8
DA:290,8
LF:4
LH:4
end_of_record
SF:/usr/lib/gcc/x86_64-pc-linux-gnu/5.4.0/include/g++-v5/bits/stl_iterator_base_funcs.h
DA:96,8
LF:1
LH:1
end_of_record
SF:/usr/lib/gcc/x86_64-pc-linux-gnu/5.4.0/include/g++-v5/ext/new_allocator.h
DA:110,0
LF:1
LH:0
end_of_record
SF:/usr/lib/gcc/x86_64-pc-linux-gnu/5.4.0/include/g++-v5/fstream
DA:253,0
LF:1
LH:0
end_of_record
SF:/usr/lib/gcc/x86_64-pc-linux-gnu/5.4.0/include/g++-v5/iostream
DA:74,8
LF:1
LH:1
end_of_record
SF:/usr/lib/gcc/x86_64-pc-linux-gnu/5.4.0/include/g++-v5/ostream
DA:509,0
DA:561,0
LF:2
LH:0
end_of_record
SF:/usr/lib/gcc/x86_64-pc-linux-gnu/5.4.0/include/g++-v5/sstream
FN:65,_ZNSt7__cxx1115basic_stringbufIcSt11char_traitsIcESaIcEED2Ev
FN:65,_ZNSt7__cxx1115basic_stringbufIcSt11char_traitsIcESaIcEED0Ev
FNDA:0,_ZNSt7__cxx1115basic_stringbufIcSt11char_traitsIcESaIcEED0Ev
FNDA:0,_ZNSt7__cxx1115basic_stringbufIcSt11char_traitsIcESaIcEED2Ev
FNF:2
FNH:0
DA:65,0
DA:766,0
LF:2
LH:0
end_of_record
SF:/usr/lib/gcc/x86_64-pc-linux-gnu/5.4.0/include/g++-v5/streambuf
DA:198,0
LF:1
LH:0
end_of_record
TN:
SF:/home/ssynx/Devel/erebos-api/test/test-logger.cpp
FN:1,main
FNDA:1,main
FNF:1
FNH:1
DA:1,1
LF:1
LH:1
end_of_record
TN:
SF:/home/ssynx/Devel/erebos-api/src/input.cpp
FN:31,_ZL21get_keyboard_evpath_sPc
FN:73,_ZN6erebos5input23getev_physical_keyboardEv
FN:80,_ZN6erebos5input21new_virtual_kb_deviceEPKcRKbRKtS6_S6_S6_
FN:116,_ZN6erebos5input25destroy_virtual_kb_deviceERKi
FN:148,_ZN6erebos5input7get_keyEP8_IO_FILE
FN:177,_ZN6erebos5input8fake_putERKiRKNS0_3KeyERKNS0_12KeyPressTypeE
FNDA:0,_ZL21get_keyboard_evpath_sPc
FNDA:0,_ZN6erebos5input23getev_physical_keyboardEv
FNDA:0,_ZN6erebos5input21new_virtual_kb_deviceEPKcRKbRKtS6_S6_S6_
FNDA:0,_ZN6erebos5input25destroy_virtual_kb_deviceERKi
FNDA:0,_ZN6erebos5input7get_keyEP8_IO_FILE
FNDA:0,_ZN6erebos5input8fake_putERKiRKNS0_3KeyERKNS0_12KeyPressTypeE
FNF:6
FNH:0
DA:31,0
DA:32,0
DA:33,0
DA:38,0
DA:39,0
DA:40,0
DA:45,0
DA:49,0
DA:51,0
DA:55,0
DA:58,0
DA:61,0
DA:64,0
DA:67,0
DA:70,0
DA:73,0
DA:75,0
DA:77,0
DA:80,0
DA:84,0
DA:87,0
DA:90,0
DA:91,0
DA:97,0
DA:98,0
DA:99,0
DA:100,0
DA:103,0
DA:107,0
DA:110,0
DA:111,0
DA:116,0
DA:117,0
DA:120,0
DA:148,0
DA:152,0
DA:154,0
DA:155,0
DA:177,0
DA:181,0
DA:182,0
DA:183,0
DA:184,0
DA:186,0
DA:189,0
DA:190,0
DA:191,0
DA:193,0
LF:48
LH:0
end_of_record
SF:/usr/include/bits/fcntl2.h
DA:53,0
LF:1
LH:0
end_of_record
SF:/usr/include/bits/stdio2.h
DA:65,0
LF:1
LH:0
end_of_record
SF:/usr/include/bits/stdlib.h
DA:39,0
DA:45,0
DA:48,0
LF:3
LH:0
end_of_record
SF:/usr/include/bits/string3.h
DA:90,0
LF:1
LH:0
end_of_record
SF:/usr/include/bits/unistd.h
DA:185,0
DA:210,0
LF:2
LH:0
end_of_record
SF:/usr/lib/gcc/x86_64-pc-linux-gnu/5.4.0/include/g++-v5/chrono
DA:163,0
DA:176,0
DA:264,0
DA:399,0
DA:495,0
LF:5
LH:0
end_of_record
SF:/usr/lib/gcc/x86_64-pc-linux-gnu/5.4.0/include/g++-v5/thread
FN:280,_ZNSt11this_thread9sleep_forIlSt5ratioILl1ELl1000EEEEvRKNSt6chrono8durationIT_T0_EE
FNDA:0,_ZNSt11this_thread9sleep_forIlSt5ratioILl1ELl1000EEEEvRKNSt6chrono8durationIT_T0_EE
FNF:1
FNH:0
DA:280,0
DA:282,0
DA:283,0
DA:291,0
DA:292,0
LF:5
LH:0
end_of_record
TN:
SF:/home/ssynx/Devel/erebos-api/src/native.cpp
FN:40,_ZN6erebos14_get_exe_path_B5cxx11Ev
FN:61,_ZN6erebos4proc7get_pidEv
FN:72,_ZN6erebos4proc15get_pid_by_nameERKNSt7__cxx1112basic_stringIcSt11char_traitsIcESaIcEEERSt6vectorIiSaIiEE
FN:142,_ZN6erebos4proc4killERKi
FN:151,_ZN6erebos4proc8mem_readERKiRKmPcS4_
FN:188,_ZN6erebos4proc9mem_writeERKiRKmPcS4_
FN:230,_ZN6erebos4proc8mem_lockEPvRKm
FN:240,_ZN6erebos4proc10mem_unlockEPvRKm
FN:250,_ZN6erebos13is_privilegedEv
FN:291,_ZN6erebos17get_random_secureEv
FN:322,_ZN6erebos4file17get_dir_file_listERKNSt7__cxx1112basic_stringIcSt11char_traitsIcESaIcEEERSt6vectorIS6_SaIS6_EE
FN:380,_ZN6erebos4file19get_dir_folder_listERKNSt7__cxx1112basic_stringIcSt11char_traitsIcESaIcEEERSt6vectorIS6_SaIS6_EE
FN:437,_ZN6erebos4file17get_folder_existsERKNSt7__cxx1112basic_stringIcSt11char_traitsIcESaIcEEE
FN:451,_ZN6erebos4file8get_sizeERKNSt7__cxx1112basic_stringIcSt11char_traitsIcESaIcEEE
FN:477,_ZN6erebos4file6removeERKNSt7__cxx1112basic_stringIcSt11char_traitsIcESaIcEEE
FN:490,_Z15remove_callbackPKcPK4statiP3FTW
FN:502,_ZN6erebos4file10remove_dirERKNSt7__cxx1112basic_stringIcSt11char_traitsIcESaIcEEE
FN:536,_ZN6erebos3cmdERKNSt7__cxx1112basic_stringIcSt11char_traitsIcESaIcEEEPi
FN:554,_ZN6erebos3cmdERKNSt7__cxx1112basic_stringIcSt11char_traitsIcESaIcEEERS5_Pi
FN:581,_ZN6erebos7get_cwdB5cxx11Ev
FN:606,_ZN6erebos7set_cwdENSt7__cxx1112basic_stringIcSt11char_traitsIcESaIcEEE
FN:623,_ZN6erebos4file8readlinkERKNSt7__cxx1112basic_stringIcSt11char_traitsIcESaIcEEE
FN:643,_ZN6erebos17string_from_errnoB5cxx11ERKi
FN:664,_GLOBAL__sub_I__ZN6erebos14_get_exe_path_B5cxx11Ev
FNDA:0,_ZN6erebos14_get_exe_path_B5cxx11Ev
FNDA:0,_ZN6erebos4proc7get_pidEv
FNDA:0,_ZN6erebos4proc15get_pid_by_nameERKNSt7__cxx1112basic_stringIcSt11char_traitsIcESaIcEEERSt6vectorIiSaIiEE
FNDA:0,_ZN6erebos4proc4killERKi
FNDA:0,_ZN6erebos4proc8mem_readERKiRKmPcS4_
FNDA:0,_ZN6erebos4proc9mem_writeERKiRKmPcS4_
FNDA:0,_ZN6erebos4proc8mem_lockEPvRKm
FNDA:0,_ZN6erebos4proc10mem_unlockEPvRKm
FNDA:0,_ZN6erebos13is_privilegedEv
FNDA:1,_ZN6erebos17get_random_secureEv
FNDA:0,_ZN6erebos4file17get_dir_file_listERKNSt7__cxx1112basic_stringIcSt11char_traitsIcESaIcEEERSt6vectorIS6_SaIS6_EE
FNDA:0,_ZN6erebos4file19get_dir_folder_listERKNSt7__cxx1112basic_stringIcSt11char_traitsIcESaIcEEERSt6vectorIS6_SaIS6_EE
FNDA:0,_ZN6erebos4file17get_folder_existsERKNSt7__cxx1112basic_stringIcSt11char_traitsIcESaIcEEE
FNDA:0,_ZN6erebos4file8get_sizeERKNSt7__cxx1112basic_stringIcSt11char_traitsIcESaIcEEE
FNDA:1,_ZN6erebos4file6removeERKNSt7__cxx1112basic_stringIcSt11char_traitsIcESaIcEEE
FNDA:0,_Z15remove_callbackPKcPK4statiP3FTW
FNDA:0,_ZN6erebos4file10remove_dirERKNSt7__cxx1112basic_stringIcSt11char_traitsIcESaIcEEE
FNDA:0,_ZN6erebos3cmdERKNSt7__cxx1112basic_stringIcSt11char_traitsIcESaIcEEEPi
FNDA:0,_ZN6erebos3cmdERKNSt7__cxx1112basic_stringIcSt11char_traitsIcESaIcEEERS5_Pi
FNDA:0,_ZN6erebos7get_cwdB5cxx11Ev
FNDA:0,_ZN6erebos7set_cwdENSt7__cxx1112basic_stringIcSt11char_traitsIcESaIcEEE
FNDA:0,_ZN6erebos4file8readlinkERKNSt7__cxx1112basic_stringIcSt11char_traitsIcESaIcEEE
FNDA:0,_ZN6erebos17string_from_errnoB5cxx11ERKi
FNDA:8,_GLOBAL__sub_I__ZN6erebos14_get_exe_path_B5cxx11Ev
FNF:24
FNH:3
DA:40,0
DA:53,0
DA:54,0
DA:56,0
DA:61,0
DA:67,0
DA:72,0
DA:104,0
DA:105,0
DA:109,0
DA:111,0
DA:114,0
DA:115,0
DA:117,0
DA:118,0
DA:142,0
DA:147,0
DA:151,0
DA:174,0
DA:175,0
DA:177,0
DA:178,0
DA:180,0
DA:181,0
DA:184,0
DA:188,0
DA:214,0
DA:215,0
DA:217,0
DA:218,0
DA:220,0
DA:221,0
DA:224,0
DA:230,0
DA:236,0
DA:240,0
DA:246,0
DA:250,0
DA:286,0
DA:291,1
DA:315,1
DA:317,1
DA:322,0
DA:363,0
DA:364,0
DA:368,0
DA:369,0
DA:370,0
DA:372,0
DA:376,0
DA:380,0
DA:421,0
DA:422,0
DA:426,0
DA:427,0
DA:428,0
DA:430,0
DA:433,0
DA:437,0
DA:446,0
DA:451,0
DA:469,0
DA:472,0
DA:477,1
DA:482,1
DA:490,0
DA:496,0
DA:502,0
DA:529,0
DA:536,0
DA:538,0
DA:539,0
DA:542,0
DA:543,0
DA:544,0
DA:545,0
DA:547,0
DA:550,0
DA:554,0
DA:556,0
DA:557,0
DA:560,0
DA:563,0
DA:564,0
DA:566,0
DA:568,0
DA:569,0
DA:571,0
DA:572,0
DA:574,0
DA:577,0
DA:581,0
DA:597,0
DA:598,0
DA:600,0
DA:606,0
DA:614,0
DA:623,0
DA:628,0
DA:629,0
DA:633,0
DA:634,0
DA:636,0
DA:637,0
DA:643,0
DA:646,0
DA:664,16
LF:107
LH:6
end_of_record
SF:/home/ssynx/Devel/erebos-api/src/stringutils.h
FN:36,_ZN6erebos7strutil5chompERNSt7__cxx1112basic_stringIcSt11char_traitsIcESaIcEEE
FNDA:0,_ZN6erebos7strutil5chompERNSt7__cxx1112basic_stringIcSt11char_traitsIcESaIcEEE
FNF:1
FNH:0
DA:36,0
DA:37,0
DA:39,0
DA:40,0
DA:41,0
DA:62,0
DA:93,0
DA:94,0
LF:8
LH:0
end_of_record
SF:/usr/include/bits/stdio2.h
DA:65,0
DA:263,0
LF:2
LH:0
end_of_record
SF:/usr/include/bits/unistd.h
DA:150,0
DA:210,0
LF:2
LH:0
end_of_record
SF:/usr/include/sys/stat.h
DA:454,0
DA:461,0
LF:2
LH:0
end_of_record
SF:/usr/lib/gcc/x86_64-pc-linux-gnu/5.4.0/include/g++-v5/bits/basic_string.h
FN:109,_ZNSt7__cxx1112basic_stringIcSt11char_traitsIcESaIcEEC2EPKcRKS3_.isra.39
FN:4911,_ZSteqIcEN9__gnu_cxx11__enable_ifIXsrSt9__is_charIT_E7__valueEbE6__typeERKNSt7__cxx1112basic_stringIS3_St11char_traitsIS3_ESaIS3_EEESE_
FNDA:0,_ZNSt7__cxx1112basic_stringIcSt11char_traitsIcESaIcEEC2EPKcRKS3_.isra.39
FNDA:0,_ZSteqIcEN9__gnu_cxx11__enable_ifIXsrSt9__is_charIT_E7__valueEbE6__typeERKNSt7__cxx1112basic_stringIS3_St11char_traitsIS3_ESaIS3_EEESE_
FNF:2
FNH:0
DA:106,0
DA:109,0
DA:127,0
DA:131,0
DA:141,0
DA:151,0
DA:159,0
DA:165,0
DA:179,0
DA:195,0
DA:296,0
DA:454,0
DA:456,0
DA:479,0
DA:487,0
DA:543,0
DA:589,0
DA:834,0
DA:892,0
DA:893,0
DA:897,0
DA:4911,0
DA:4915,0
DA:5260,0
LF:24
LH:0
end_of_record
SF:/usr/lib/gcc/x86_64-pc-linux-gnu/5.4.0/include/g++-v5/bits/basic_string.tcc
FN:210,_ZNSt7__cxx1112basic_stringIcSt11char_traitsIcESaIcEE12_M_constructIPKcEEvT_S8_St20forward_iterator_tag.isra.37
FN:210,_ZNSt7__cxx1112basic_stringIcSt11char_traitsIcESaIcEE12_M_constructIPcEEvT_S7_St20forward_iterator_tag.isra.42
FNDA:0,_ZNSt7__cxx1112basic_stringIcSt11char_traitsIcESaIcEE12_M_constructIPcEEvT_S7_St20forward_iterator_tag.isra.42
FNDA:0,_ZNSt7__cxx1112basic_stringIcSt11char_traitsIcESaIcEE12_M_constructIPKcEEvT_S8_St20forward_iterator_tag.isra.37
FNF:2
FNH:0
DA:210,0
DA:215,0
DA:216,0
DA:219,0
DA:221,0
DA:223,0
DA:224,0
DA:236,0
DA:237,0
LF:9
LH:0
end_of_record
SF:/usr/lib/gcc/x86_64-pc-linux-gnu/5.4.0/include/g++-v5/bits/char_traits.h
DA:243,0
DA:260,0
DA:262,0
DA:267,0
DA:288,0
DA:290,0
LF:6
LH:0
end_of_record
SF:/usr/lib/gcc/x86_64-pc-linux-gnu/5.4.0/include/g++-v5/bits/stl_algobase.h
DA:224,0
DA:383,0
DA:384,0
LF:3
LH:0
end_of_record
SF:/usr/lib/gcc/x86_64-pc-linux-gnu/5.4.0/include/g++-v5/bits/stl_construct.h
DA:75,0
DA:102,0
LF:2
LH:0
end_of_record
SF:/usr/lib/gcc/x86_64-pc-linux-gnu/5.4.0/include/g++-v5/bits/stl_iterator.h
DA:741,0
DA:763,0
DA:993,0
DA:1006,0
LF:4
LH:0
end_of_record
SF:/usr/lib/gcc/x86_64-pc-linux-gnu/5.4.0/include/g++-v5/bits/stl_iterator_base_funcs.h
DA:96,0
LF:1
LH:0
end_of_record
SF:/usr/lib/gcc/x86_64-pc-linux-gnu/5.4.0/include/g++-v5/bits/stl_uninitialized.h
FN:68,_ZNSt20__uninitialized_copyILb0EE13__uninit_copyISt13move_iteratorIPNSt7__cxx1112basic_stringIcSt11char_traitsIcESaIcEEEES9_EET0_T_SC_SB_
FNDA:0,_ZNSt20__uninitialized_copyILb0EE13__uninit_copyISt13move_iteratorIPNSt7__cxx1112basic_stringIcSt11char_traitsIcESaIcEEEES9_EET0_T_SC_SB_
FNF:1
FNH:0
DA:68,0
DA:74,0
DA:76,0
DA:126,0
LF:4
LH:0
end_of_record
SF:/usr/lib/gcc/x86_64-pc-linux-gnu/5.4.0/include/g++-v5/bits/stl_vector.h
FN:79,_ZNSt6vectorINSt7__cxx1112basic_stringIcSt11char_traitsIcESaIcEEESaIS5_EED2Ev
FN:167,_ZNSt12_Vector_baseINSt7__cxx1112basic_stringIcSt11char_traitsIcESaIcEEESaIS5_EE11_M_allocateEm.isra.34
FN:167,_ZNSt12_Vector_baseIiSaIiEE11_M_allocateEm.isra.54
FN:655,_ZNKSt6vectorINSt7__cxx1112basic_stringIcSt11char_traitsIcESaIcEEESaIS5_EE12_M_check_lenEmPKc
FN:655,_ZNKSt6vectorIiSaIiEE12_M_check_lenEmPKc.isra.51
FNDA:0,_ZNSt12_Vector_baseIiSaIiEE11_M_allocateEm.isra.54
FNDA:0,_ZNSt12_Vector_baseINSt7__cxx1112basic_stringIcSt11char_traitsIcESaIcEEESaIS5_EE11_M_allocateEm.isra.34
FNDA:0,_ZNSt6vectorINSt7__cxx1112basic_stringIcSt11char_traitsIcESaIcEEESaIS5_EED2Ev
FNDA:0,_ZNKSt6vectorIiSaIiEE12_M_check_lenEmPKc.isra.51
FNDA:0,_ZNKSt6vectorINSt7__cxx1112basic_stringIcSt11char_traitsIcESaIcEEESaIS5_EE12_M_check_lenEmPKc
FNF:5
FNH:0
DA:79,0
DA:87,0
DA:161,0
DA:167,0
DA:170,0
DA:177,0
DA:423,0
DA:424,0
DA:425,0
DA:655,0
DA:932,0
DA:1422,0
DA:1424,0
DA:1425,0
DA:1427,0
DA:1428,0
LF:16
LH:0
end_of_record
SF:/usr/lib/gcc/x86_64-pc-linux-gnu/5.4.0/include/g++-v5/bits/vector.tcc
FN:91,_ZNSt6vectorIiSaIiEE12emplace_backIJiEEEvDpOT_
FN:91,_ZNSt6vectorINSt7__cxx1112basic_stringIcSt11char_traitsIcESaIcEEESaIS5_EE12emplace_backIJRA256_cEEEvDpOT_
FN:407,_ZNSt6vectorINSt7__cxx1112basic_stringIcSt11char_traitsIcESaIcEEESaIS5_EE19_M_emplace_back_auxIJRA256_cEEEvDpOT_
FN:407,_ZNSt6vectorIiSaIiEE19_M_emplace_back_auxIJiEEEvDpOT_
FNDA:0,_ZNSt6vectorIiSaIiEE12emplace_backIJiEEEvDpOT_
FNDA:0,_ZNSt6vectorINSt7__cxx1112basic_stringIcSt11char_traitsIcESaIcEEESaIS5_EE12emplace_backIJRA256_cEEEvDpOT_
FNDA:0,_ZNSt6vectorIiSaIiEE19_M_emplace_back_auxIJiEEEvDpOT_
FNDA:0,_ZNSt6vectorINSt7__cxx1112basic_stringIcSt11char_traitsIcESaIcEEESaIS5_EE19_M_emplace_back_auxIJRA256_cEEEvDpOT_
FNF:4
FNH:0
DA:91,0
DA:94,0
DA:98,0
DA:101,0
DA:102,0
DA:407,0
DA:411,0
DA:412,0
DA:416,0
DA:422,0
DA:425,0
DA:427,0
DA:429,0
DA:430,0
DA:434,0
DA:436,0
DA:440,0
DA:441,0
DA:442,0
DA:443,0
DA:444,0
LF:21
LH:0
end_of_record
SF:/usr/lib/gcc/x86_64-pc-linux-gnu/5.4.0/include/g++-v5/ext/new_allocator.h
DA:101,0
DA:102,0
DA:104,0
DA:110,0
DA:120,0
LF:5
LH:0
end_of_record
SF:/usr/lib/gcc/x86_64-pc-linux-gnu/5.4.0/include/g++-v5/ext/string_conversions.h
FN:54,_ZN9__gnu_cxx6__stoaIlicJiEEET0_PFT_PKT1_PPS3_DpT2_EPKcS5_PmS9_
FNDA:0,_ZN9__gnu_cxx6__stoaIlicJiEEET0_PFT_PKT1_PPS3_DpT2_EPKcS5_PmS9_
FNF:1
FNH:0
DA:54,0
DA:61,0
DA:62,0
DA:64,0
DA:65,0
DA:66,0
DA:70,0
DA:72,0
DA:74,0
DA:75,0
DA:77,0
LF:11
LH:0
end_of_record
SF:/usr/lib/gcc/x86_64-pc-linux-gnu/5.4.0/include/g++-v5/iostream
DA:74,8
LF:1
LH:1
end_of_record
SF:/usr/lib/gcc/x86_64-pc-linux-gnu/5.4.0/include/g++-v5/ostream
DA:561,0
LF:1
LH:0
end_of_record
SF:/usr/lib/gcc/x86_64-pc-linux-gnu/5.4.0/include/g++-v5/sstream
FN:65,_ZNSt7__cxx1115basic_stringbufIcSt11char_traitsIcESaIcEED2Ev
FN:65,_ZNSt7__cxx1115basic_stringbufIcSt11char_traitsIcESaIcEED0Ev
FNDA:0,_ZNSt7__cxx1115basic_stringbufIcSt11char_traitsIcESaIcEED0Ev
FNDA:0,_ZNSt7__cxx1115basic_stringbufIcSt11char_traitsIcESaIcEED2Ev
FNF:2
FNH:0
DA:65,0
DA:766,0
LF:2
LH:0
end_of_record
SF:/usr/lib/gcc/x86_64-pc-linux-gnu/5.4.0/include/g++-v5/streambuf
DA:198,0
LF:1
LH:0
end_of_record
TN:
SF:/home/ssynx/Devel/erebos-api/test/test-file.cpp
FN:6,main
FN:121,_GLOBAL__sub_I_main
FNDA:1,main
FNDA:1,_GLOBAL__sub_I_main
FNF:2
FNH:2
DA:6,1
DA:8,1
DA:11,2
DA:13,3
DA:14,1
DA:16,3
DA:17,1
DA:19,3
DA:20,1
DA:22,3
DA:23,1
DA:25,1
DA:66,2
DA:68,3
DA:69,1
DA:71,3
DA:72,1
DA:74,3
DA:75,1
DA:77,3
DA:78,1
DA:80,3
DA:81,1
DA:83,1
DA:86,2
DA:88,3
DA:89,1
DA:91,1
DA:94,2
DA:96,3
DA:97,1
DA:99,1
DA:102,2
DA:104,2
DA:105,1
DA:107,1
DA:110,2
DA:112,2
DA:113,1
DA:115,1
DA:118,1
DA:121,2
LF:42
LH:42
end_of_record
SF:/usr/lib/gcc/x86_64-pc-linux-gnu/5.4.0/include/g++-v5/bits/basic_string.h
FN:109,_ZNSt7__cxx1112basic_stringIcSt11char_traitsIcESaIcEEC2EPKcRKS3_.isra.18
FNDA:14,_ZNSt7__cxx1112basic_stringIcSt11char_traitsIcESaIcEEC2EPKcRKS3_.isra.18
FNF:1
FNH:1
DA:106,27
DA:109,17
DA:127,0
DA:131,17
DA:141,14
DA:159,0
DA:165,14
DA:179,27
DA:195,14
DA:296,14
DA:454,14
DA:456,42
DA:543,27
DA:589,10
DA:4927,10
DA:5177,0
LF:16
LH:13
end_of_record
SF:/usr/lib/gcc/x86_64-pc-linux-gnu/5.4.0/include/g++-v5/bits/basic_string.tcc
FN:210,_ZNSt7__cxx1112basic_stringIcSt11char_traitsIcESaIcEE12_M_constructIPKcEEvT_S8_St20forward_iterator_tag.isra.16
FNDA:14,_ZNSt7__cxx1112basic_stringIcSt11char_traitsIcESaIcEE12_M_constructIPKcEEvT_S8_St20forward_iterator_tag.isra.16
FNF:1
FNH:1
DA:210,14
DA:215,14
DA:216,0
DA:219,14
DA:221,14
DA:223,0
DA:224,0
DA:236,14
DA:237,14
LF:9
LH:6
end_of_record
SF:/usr/lib/gcc/x86_64-pc-linux-gnu/5.4.0/include/g++-v5/bits/char_traits.h
DA:243,17
DA:267,22
DA:288,14
DA:290,12
LF:4
LH:4
end_of_record
SF:/usr/lib/gcc/x86_64-pc-linux-gnu/5.4.0/include/g++-v5/bits/locale_facets.h
FN:872,_ZNKSt5ctypeIcE5widenEc
FN:1082,_ZNKSt5ctypeIcE8do_widenEc
FNDA:0,_ZNKSt5ctypeIcE5widenEc
FNDA:0,_ZNKSt5ctypeIcE8do_widenEc
FNF:2
FNH:0
DA:872,0
DA:874,0
DA:875,0
DA:876,0
DA:877,0
DA:1082,0
DA:1083,0
LF:7
LH:0
end_of_record
SF:/usr/lib/gcc/x86_64-pc-linux-gnu/5.4.0/include/g++-v5/bits/stl_iterator_base_funcs.h
DA:96,14
LF:1
LH:1
end_of_record
SF:/usr/lib/gcc/x86_64-pc-linux-gnu/5.4.0/include/g++-v5/ext/new_allocator.h
DA:110,0
LF:1
LH:0
end_of_record
SF:/usr/lib/gcc/x86_64-pc-linux-gnu/5.4.0/include/g++-v5/iostream
DA:74,1
LF:1
LH:1
end_of_record
SF:/usr/lib/gcc/x86_64-pc-linux-gnu/5.4.0/include/g++-v5/ostream
DA:113,1
DA:175,0
DA:509,2
DA:561,22
LF:4
LH:3
end_of_record
